(lp0
(lp1
I1
aI1
aI1
aI1
aI1
aI1
aI1
aI1
aI1
aI1
aI1
aI1
aI1
aI1
aI1
aI1
aI1
aI1
aI1
aI1
aa(lp2
I1
aI0
aI0
aI0
aI0
aI0
aI0
aI0
aI0
aI0
aI0
aI0
aI0
aI0
aI0
aI0
aI0
aI0
aI0
aI1
aa(lp3
I1
aI0
aI0
aI0
aI0
aI0
aI0
aI0
aI0
aI0
aI0
aI0
aI0
aI0
aI0
aI0
aI0
aI0
aI0
aI1
aa(lp4
I1
aI0
aI0
aI10
aI0
aI0
aI0
aI0
aI0
aI1
aI0
aI1
aI1
aI1
aI1
aI1
aI0
aI0
aI0
aI1
aa(lp5
I1
aI0
aI0
aI0
aI0
aI0
aI0
aI0
aI0
aI1
aI0
aI0
aI0
aI5
aI5
aI1
aI0
aI0
aI0
aI1
aa(lp6
I1
aI0
aI0
aI0
aI0
aI0
aI0
aI0
aI0
aI1
aI0
aI1
aI1
aI1
aI1
aI1
aI0
aI0
aI0
aI1
aa(lp7
I1
aI0
aI1
aI1
aI0
aI1
aI0
aI0
aI0
aI1
aI0
aI1
aI9
aI0
aI8
aI1
aI0
aI0
aI0
aI1
aa(lp8
I1
aI0
aI1
aI0
aI0
aI1
aI0
aI0
aI0
aI1
aI0
aI1
aI0
aI0
aI0
aI1
aI0
aI0
aI0
aI1
aa(lp9
I1
aI0
aI1
aI6
aI7
aI1
aI0
aI0
aI0
aI1
aI0
aI1
aI0
aI0
aI0
aI1
aI0
aI0
aI0
aI1
aa(lp10
I1
aI0
aI1
aI1
aI1
aI1
aI0
aI0
aI0
aI1
aI0
aI1
aI0
aI0
aI0
aI1
aI0
aI0
aI0
aI1
aa(lp11
I1
aI0
aI0
aI0
aI0
aI0
aI0
aI0
aI0
aI1
aI0
aI1
aI0
aI0
aI0
aI1
aI0
aI0
aI0
aI1
aa(lp12
I1
aI0
aI0
aI0
aI0
aI0
aI0
aI0
aI0
aI1
aI0
aI1
aI0
aI0
aI0
aI1
aI0
aI0
aI0
aI1
aa(lp13
I1
aI0
aI0
aI0
aI0
aI1
aI3
aI1
aI0
aI1
aI0
aI0
aI0
aI0
aI0
aI1
aI0
aI0
aI0
aI1
aa(lp14
I1
aI0
aI0
aI0
aI0
aI1
aI4
aI1
aI0
aI1
aI0
aI1
aI1
aI1
aI1
aI1
aI0
aI0
aI0
aI1
aa(lp15
I1
aI0
aI0
aI0
aI0
aI1
aI1
aI1
aI0
aI1
aI0
aI0
aI0
aI1
aI2
aI1
aI0
aI0
aI0
aI1
aa(lp16
I1
aI0
aI0
aI0
aI0
aI0
aI0
aI0
aI0
aI1
aI0
aI1
aI0
aI0
aI0
aI1
aI0
aI0
aI0
aI1
aa(lp17
I1
aI0
aI0
aI0
aI0
aI0
aI0
aI0
aI0
aI1
aI1
aI1
aI1
aI1
aI1
aI1
aI0
aI0
aI0
aI1
aa(lp18
I1
aI0
aI0
aI0
aI0
aI0
aI0
aI0
aI0
aI0
aI0
aI0
aI0
aI0
aI0
aI0
aI0
aI0
aI0
aI1
aa(lp19
I1
aI0
aI0
aI0
aI0
aI0
aI0
aI0
aI0
aI0
aI0
aI0
aI0
aI0
aI0
aI0
aI0
aI0
aI0
aI1
aa(lp20
I1
aI1
aI1
aI1
aI1
aI1
aI1
aI1
aI1
aI1
aI1
aI1
aI1
aI1
aI1
aI1
aI1
aI1
aI1
aI1
aa.