((lp0
(lp1
I1
aI1
aI1
aI1
aI1
aI1
aI1
aI1
aI1
aI1
aI0
aI0
aI0
aI0
aI0
aI0
aI0
aI0
aI0
aI0
aa(lp2
I1
aI4
aI1
aI0
aI0
aI0
aI0
aI0
aI2
aI1
aI1
aI1
aI0
aI0
aI0
aI0
aI0
aI0
aI0
aI0
aa(lp3
I1
aI0
aI1
aI0
aI1
aI1
aI1
aI1
aI1
aI1
aI0
aI1
aI0
aI0
aI0
aI1
aI1
aI1
aI1
aI0
aa(lp4
I1
aI0
aI1
aI0
aI1
aI0
aI0
aI0
aI0
aI0
aI0
aI1
aI1
aI0
aI1
aI1
aI0
aI0
aI1
aI1
aa(lp5
I1
aI11
aI1
aI0
aI1
aI0
aI1
aI1
aI1
aI1
aI0
aI0
aI1
aI1
aI1
aI0
aI0
aI0
aI0
aI1
aa(lp6
I1
aI0
aI1
aI0
aI1
aI0
aI1
aI0
aI0
aI1
aI1
aI0
aI0
aI0
aI0
aI0
aI0
aI0
aI0
aI1
aa(lp7
I1
aI0
aI1
aI0
aI1
aI0
aI1
aI0
aI0
aI1
aI1
aI0
aI0
aI0
aI0
aI0
aI0
aI0
aI0
aI1
aa(lp8
I1
aI0
aI1
aI0
aI1
aI0
aI1
aI0
aI0
aI0
aI1
aI0
aI0
aI0
aI0
aI0
aI0
aI0
aI0
aI1
aa(lp9
I1
aI0
aI1
aI0
aI1
aI0
aI1
aI0
aI0
aI0
aI1
aI0
aI0
aI1
aI1
aI1
aI0
aI0
aI0
aI1
aa(lp10
I1
aI0
aI1
aI0
aI1
aI0
aI1
aI0
aI0
aI0
aI1
aI1
aI0
aI1
aI2
aI1
aI0
aI0
aI1
aI1
aa(lp11
I1
aI0
aI1
aI0
aI1
aI0
aI1
aI0
aI0
aI7
aI8
aI1
aI1
aI1
aI0
aI1
aI0
aI0
aI1
aI0
aa(lp12
I1
aI0
aI1
aI0
aI1
aI0
aI1
aI0
aI0
aI8
aI7
aI1
aI0
aI0
aI0
aI1
aI0
aI0
aI1
aI0
aa(lp13
I1
aI0
aI1
aI0
aI1
aI0
aI1
aI0
aI0
aI1
aI1
aI1
aI0
aI1
aI1
aI1
aI0
aI0
aI1
aI1
aa(lp14
I1
aI0
aI0
aI0
aI0
aI0
aI0
aI0
aI0
aI1
aI0
aI0
aI0
aI1
aI0
aI0
aI0
aI0
aI0
aI1
aa(lp15
I1
aI1
aI1
aI1
aI1
aI1
aI1
aI1
aI1
aI1
aI0
aI1
aI1
aI1
aI0
aI0
aI0
aI1
aI1
aI1
aa(lp16
I1
aI0
aI0
aI0
aI0
aI0
aI0
aI0
aI0
aI0
aI0
aI0
aI0
aI0
aI0
aI1
aI1
aI1
aI0
aI0
aa(lp17
I1
aI0
aI0
aI0
aI0
aI0
aI0
aI0
aI0
aI0
aI0
aI0
aI0
aI0
aI0
aI1
aI0
aI0
aI0
aI0
aa(lp18
I1
aI3
aI1
aI1
aI1
aI0
aI0
aI0
aI0
aI0
aI0
aI0
aI0
aI0
aI0
aI1
aI0
aI0
aI0
aI0
aa(lp19
I1
aI0
aI3
aI5
aI1
aI1
aI1
aI1
aI0
aI0
aI0
aI1
aI1
aI1
aI1
aI1
aI0
aI0
aI0
aI0
aa(lp20
I1
aI1
aI1
aI1
aI1
aI1
aI1
aI1
aI1
aI1
aI1
aI1
aI0
aI0
aI0
aI0
aI0
aI0
aI0
aI0
aa(I1
I4
tp21
(I1
I1
tp22
(I3
I18
tp23
I0
tp24
.