((lp0
(lp1
I28
aI28
aI28
aI28
aI120
aI28
aI28
aI28
aa(lp2
I28
aI20
aI28
aI28
aI28
aI28
aI20
aI28
aa(lp3
I28
aI22
aI118
aI4
aI4
aI117
aI22
aI28
aa(lp4
I28
aI22
aI4
aI4
aI4
aI4
aI22
aI28
aa(lp5
I28
aI22
aI4
aI4
aI4
aI4
aI22
aI28
aa(lp6
I28
aI22
aI4
aI4
aI127
aI4
aI22
aI28
aa(lp7
I28
aI20
aI21
aI21
aI21
aI21
aI20
aI28
aa(lp8
I28
aI28
aI28
aI28
aI121
aI28
aI28
aI28
aa(I4
I0
tp9
(I4
I7
tp10
(I4
I5
tp11
(dp12
tp13
.