((lp0
(lp1
I126
aI126
aI126
aI52
aI52
aI52
aI52
aI52
aI52
aI52
aI52
aI52
aI52
aI52
aI52
aI52
aI52
aI126
aI126
aI126
aa(lp2
I126
aI126
aI52
aI52
aI52
aI52
aI52
aI52
aI52
aI52
aI52
aI52
aI52
aI52
aI52
aI52
aI52
aI52
aI126
aI126
aa(lp3
I126
aI52
aI52
aI52
aI52
aI52
aI52
aI52
aI52
aI52
aI52
aI52
aI52
aI52
aI52
aI52
aI52
aI52
aI52
aI126
aa(lp4
I52
aI52
aI52
aI52
aI52
aI52
aI52
aI52
aI52
aI52
aI52
aI52
aI52
aI52
aI48
aI49
aI50
aI52
aI52
aI52
aa(lp5
I52
aI52
aI52
aI52
aI52
aI52
aI52
aI52
aI52
aI52
aI52
aI52
aI52
aI52
aI45
aI46
aI47
aI52
aI52
aI52
aa(lp6
I52
aI52
aI52
aI52
aI52
aI52
aI52
aI52
aI52
aI52
aI52
aI52
aI52
aI52
aI42
aI43
aI44
aI52
aI52
aI52
aa(lp7
I52
aI52
aI52
aI52
aI52
aI52
aI52
aI52
aI52
aI52
aI52
aI52
aI52
aI52
aI8
aI8
aI8
aI52
aI52
aI52
aa(lp8
I52
aI52
aI52
aI52
aI52
aI52
aI52
aI52
aI25
aI25
aI25
aI52
aI52
aI52
aI55
aI8
aI52
aI52
aI52
aI52
aa(lp9
I52
aI52
aI52
aI52
aI52
aI52
aI52
aI52
aI25
aI25
aI25
aI52
aI52
aI52
aI52
aI8
aI52
aI52
aI52
aI52
aa(lp10
I52
aI52
aI52
aI52
aI52
aI52
aI52
aI52
aI25
aI120
aI25
aI52
aI52
aI52
aI52
aI8
aI52
aI52
aI52
aI52
aa(lp11
I52
aI52
aI52
aI52
aI52
aI52
aI52
aI52
aI52
aI52
aI52
aI52
aI52
aI12
aI8
aI12
aI52
aI52
aI52
aI52
aa(lp12
I52
aI52
aI52
aI52
aI52
aI52
aI52
aI52
aI52
aI12
aI12
aI12
aI12
aI12
aI12
aI12
aI52
aI52
aI52
aI52
aa(lp13
I52
aI52
aI52
aI52
aI52
aI52
aI52
aI52
aI52
aI12
aI52
aI52
aI52
aI65
aI66
aI67
aI52
aI52
aI52
aI52
aa(lp14
I52
aI52
aI52
aI52
aI52
aI52
aI52
aI52
aI52
aI12
aI52
aI52
aI52
aI68
aI69
aI70
aI52
aI52
aI52
aI52
aa(lp15
I52
aI52
aI52
aI52
aI52
aI52
aI52
aI52
aI52
aI12
aI52
aI52
aI52
aI52
aI52
aI52
aI52
aI52
aI52
aI52
aa(lp16
I52
aI52
aI52
aI52
aI52
aI52
aI52
aI52
aI52
aI12
aI52
aI52
aI52
aI52
aI52
aI52
aI52
aI52
aI52
aI52
aa(lp17
I52
aI52
aI52
aI52
aI52
aI52
aI52
aI52
aI52
aI127
aI52
aI52
aI52
aI52
aI52
aI52
aI52
aI52
aI52
aI52
aa(lp18
I126
aI52
aI52
aI52
aI52
aI52
aI52
aI52
aI52
aI12
aI52
aI52
aI52
aI52
aI52
aI52
aI52
aI52
aI52
aI126
aa(lp19
I126
aI126
aI52
aI52
aI52
aI52
aI52
aI52
aI52
aI12
aI52
aI52
aI52
aI52
aI52
aI52
aI52
aI52
aI126
aI126
aa(lp20
I126
aI126
aI126
aI52
aI52
aI52
aI52
aI52
aI52
aI121
aI52
aI52
aI52
aI52
aI52
aI52
aI52
aI126
aI126
aI126
aa(I9
I9
tp21
(I9
I19
tp22
(I9
I16
tp23
tp24
.