((lp0
(lp1
I12
aI12
aI12
aI12
aI12
aI12
aI52
aI52
aI52
aI120
aI52
aI52
aI52
aI12
aI12
aI12
aI12
aI12
aI12
aI12
aa(lp2
I12
aI12
aI12
aI12
aI12
aI12
aI12
aI52
aI52
aI8
aI52
aI52
aI12
aI12
aI12
aI12
aI12
aI12
aI12
aI12
aa(lp3
I12
aI13
aI12
aI12
aI12
aI12
aI12
aI12
aI52
aI8
aI52
aI12
aI12
aI12
aI12
aI13
aI12
aI12
aI12
aI12
aa(lp4
I12
aI12
aI12
aI12
aI12
aI12
aI12
aI12
aI12
aI8
aI12
aI12
aI12
aI12
aI12
aI12
aI12
aI12
aI12
aI12
aa(lp5
I12
aI12
aI12
aI12
aI13
aI12
aI12
aI12
aI52
aI8
aI12
aI12
aI12
aI12
aI12
aI12
aI12
aI12
aI13
aI12
aa(lp6
I12
aI12
aI12
aI12
aI12
aI12
aI12
aI12
aI12
aI8
aI12
aI12
aI12
aI12
aI12
aI12
aI12
aI12
aI12
aI12
aa(lp7
I12
aI48
aI49
aI50
aI12
aI12
aI12
aI12
aI12
aI8
aI52
aI12
aI12
aI12
aI12
aI12
aI12
aI12
aI12
aI12
aa(lp8
I12
aI45
aI46
aI47
aI12
aI12
aI12
aI12
aI8
aI8
aI8
aI12
aI12
aI12
aI61
aI62
aI63
aI12
aI12
aI12
aa(lp9
I12
aI42
aI43
aI44
aI12
aI12
aI12
aI8
aI8
aI8
aI8
aI8
aI12
aI12
aI41
aI59
aI63
aI12
aI12
aI12
aa(lp10
I12
aI8
aI8
aI8
aI8
aI8
aI8
aI8
aI8
aI55
aI8
aI8
aI8
aI8
aI8
aI8
aI8
aI8
aI8
aI12
aa(lp11
I12
aI12
aI12
aI12
aI12
aI12
aI12
aI8
aI8
aI8
aI8
aI8
aI12
aI12
aI12
aI12
aI48
aI49
aI50
aI12
aa(lp12
I12
aI13
aI12
aI12
aI12
aI12
aI12
aI12
aI8
aI8
aI8
aI12
aI48
aI49
aI50
aI13
aI72
aI46
aI73
aI12
aa(lp13
I12
aI12
aI12
aI12
aI12
aI12
aI12
aI12
aI12
aI8
aI12
aI12
aI45
aI46
aI47
aI12
aI45
aI47
aI47
aI12
aa(lp14
I12
aI12
aI12
aI12
aI12
aI12
aI13
aI12
aI12
aI8
aI12
aI12
aI42
aI43
aI44
aI12
aI42
aI60
aI44
aI12
aa(lp15
I12
aI12
aI12
aI12
aI12
aI12
aI12
aI12
aI12
aI8
aI8
aI8
aI8
aI8
aI8
aI8
aI8
aI8
aI8
aI12
aa(lp16
I12
aI12
aI12
aI13
aI12
aI12
aI12
aI12
aI53
aI8
aI12
aI12
aI12
aI12
aI12
aI13
aI12
aI12
aI12
aI12
aa(lp17
I12
aI12
aI12
aI12
aI12
aI12
aI12
aI12
aI12
aI8
aI12
aI12
aI12
aI12
aI12
aI12
aI12
aI12
aI12
aI12
aa(lp18
I12
aI12
aI12
aI12
aI12
aI12
aI12
aI12
aI29
aI8
aI29
aI12
aI12
aI12
aI12
aI12
aI13
aI12
aI12
aI12
aa(lp19
I12
aI12
aI12
aI12
aI12
aI12
aI12
aI29
aI29
aI8
aI29
aI29
aI12
aI12
aI12
aI12
aI12
aI12
aI12
aI12
aa(lp20
I12
aI12
aI12
aI12
aI12
aI12
aI29
aI29
aI29
aI121
aI29
aI29
aI29
aI12
aI12
aI12
aI12
aI12
aI12
aI12
aa(I9
I0
tp21
(I9
I19
tp22
(I9
I16
tp23
(dp24
tp25
.