((lp0
(lp1
I28
aI28
aI28
aI28
aI28
aI28
aI28
aI28
aI28
aI28
aI28
aI28
aI28
aI28
aI28
aI28
aI28
aI28
aI28
aI28
aa(lp2
I28
aI20
aI21
aI21
aI21
aI21
aI21
aI21
aI21
aI20
aI21
aI21
aI21
aI21
aI21
aI21
aI21
aI20
aI28
aI28
aa(lp3
I28
aI22
aI23
aI23
aI23
aI23
aI23
aI23
aI23
aI22
aI23
aI23
aI23
aI23
aI23
aI23
aI23
aI22
aI28
aI28
aa(lp4
I28
aI22
aI23
aI20
aI23
aI20
aI23
aI20
aI21
aI20
aI21
aI20
aI23
aI20
aI23
aI20
aI23
aI22
aI28
aI28
aa(lp5
I28
aI22
aI23
aI22
aI23
aI22
aI23
aI22
aI23
aI23
aI23
aI22
aI23
aI22
aI23
aI22
aI23
aI22
aI28
aI28
aa(lp6
I28
aI22
aI23
aI22
aI23
aI22
aI23
aI22
aI23
aI23
aI23
aI22
aI23
aI22
aI23
aI22
aI23
aI22
aI28
aI28
aa(lp7
I28
aI22
aI23
aI20
aI23
aI20
aI23
aI20
aI21
aI20
aI21
aI20
aI23
aI20
aI23
aI20
aI23
aI22
aI28
aI28
aa(lp8
I28
aI22
aI23
aI23
aI23
aI23
aI23
aI23
aI23
aI22
aI23
aI23
aI23
aI23
aI23
aI23
aI23
aI22
aI28
aI28
aa(lp9
I28
aI20
aI21
aI21
aI21
aI20
aI23
aI20
aI23
aI22
aI23
aI20
aI23
aI20
aI21
aI21
aI21
aI20
aI28
aI28
aa(lp10
I28
aI28
aI28
aI28
aI28
aI22
aI23
aI23
aI23
aI22
aI23
aI23
aI23
aI22
aI28
aI28
aI28
aI28
aI28
aI28
aa(lp11
I28
aI1
aI1
aI1
aI38
aI20
aI21
aI20
aI23
aI22
aI23
aI20
aI21
aI20
aI38
aI1
aI1
aI1
aI28
aI28
aa(lp12
I28
aI1
aI1
aI1
aI28
aI28
aI28
aI22
aI23
aI20
aI23
aI22
aI28
aI28
aI28
aI1
aI1
aI1
aI28
aI28
aa(lp13
I28
aI1
aI1
aI1
aI1
aI1
aI28
aI22
aI23
aI23
aI23
aI22
aI28
aI1
aI1
aI1
aI1
aI1
aI28
aI28
aa(lp14
I28
aI28
aI28
aI28
aI28
aI28
aI28
aI20
aI21
aI21
aI21
aI20
aI28
aI28
aI28
aI28
aI28
aI28
aI28
aI28
aa(lp15
I28
aI1
aI1
aI1
aI1
aI1
aI28
aI1
aI1
aI1
aI1
aI1
aI28
aI1
aI1
aI1
aI1
aI1
aI28
aI28
aa(lp16
I28
aI1
aI1
aI28
aI38
aI28
aI28
aI1
aI28
aI28
aI28
aI1
aI28
aI28
aI38
aI28
aI1
aI1
aI28
aI28
aa(lp17
I28
aI28
aI28
aI28
aI1
aI1
aI1
aI1
aI28
aI121
aI28
aI1
aI1
aI1
aI1
aI28
aI28
aI28
aI28
aI28
aa(lp18
I28
aI1
aI1
aI28
aI38
aI28
aI28
aI1
aI1
aI1
aI1
aI1
aI28
aI28
aI38
aI28
aI1
aI1
aI28
aI28
aa(lp19
I28
aI1
aI1
aI1
aI1
aI1
aI28
aI1
aI1
aI1
aI1
aI1
aI28
aI1
aI1
aI1
aI1
aI1
aI28
aI28
aa(lp20
I28
aI28
aI28
aI28
aI28
aI28
aI28
aI28
aI28
aI28
aI28
aI28
aI28
aI28
aI28
aI28
aI28
aI28
aI28
aI28
aa(I19
I0
tp21
(I9
I16
tp22
(I9
I17
tp23
(dp24
tp25
.