((lp0
(lp1
I40
aI30
aI30
aI30
aI30
aI30
aI30
aI30
aI30
aI30
aI30
aI30
aI30
aI30
aI30
aI30
aI30
aI30
aI27
aI126
aa(lp2
I31
aI20
aI21
aI21
aI21
aI21
aI21
aI21
aI21
aI20
aI21
aI21
aI21
aI21
aI21
aI21
aI21
aI20
aI31
aI126
aa(lp3
I31
aI22
aI23
aI23
aI23
aI23
aI23
aI23
aI23
aI22
aI23
aI23
aI23
aI23
aI23
aI23
aI23
aI22
aI31
aI126
aa(lp4
I31
aI22
aI23
aI20
aI23
aI20
aI23
aI20
aI21
aI20
aI21
aI20
aI23
aI20
aI23
aI20
aI23
aI22
aI31
aI126
aa(lp5
I31
aI22
aI23
aI22
aI23
aI22
aI23
aI22
aI23
aI23
aI23
aI22
aI23
aI22
aI23
aI22
aI23
aI22
aI31
aI126
aa(lp6
I31
aI22
aI23
aI22
aI23
aI22
aI23
aI22
aI23
aI23
aI23
aI22
aI23
aI22
aI23
aI22
aI23
aI22
aI31
aI126
aa(lp7
I31
aI22
aI23
aI20
aI23
aI20
aI23
aI20
aI21
aI20
aI21
aI20
aI23
aI20
aI23
aI20
aI23
aI22
aI31
aI126
aa(lp8
I31
aI22
aI23
aI23
aI23
aI23
aI23
aI23
aI23
aI22
aI23
aI23
aI23
aI23
aI23
aI23
aI23
aI22
aI31
aI126
aa(lp9
I31
aI20
aI21
aI21
aI21
aI20
aI23
aI20
aI23
aI22
aI23
aI20
aI23
aI20
aI21
aI21
aI21
aI20
aI31
aI126
aa(lp10
I31
aI30
aI30
aI30
aI27
aI22
aI23
aI23
aI23
aI22
aI23
aI23
aI23
aI22
aI40
aI30
aI30
aI30
aI27
aI126
aa(lp11
I31
aI1
aI1
aI1
aI81
aI20
aI21
aI20
aI23
aI22
aI23
aI20
aI21
aI20
aI81
aI1
aI1
aI1
aI31
aI126
aa(lp12
I31
aI1
aI1
aI1
aI51
aI30
aI27
aI22
aI23
aI20
aI23
aI22
aI40
aI30
aI75
aI1
aI1
aI1
aI31
aI126
aa(lp13
I31
aI1
aI1
aI1
aI1
aI1
aI31
aI22
aI23
aI23
aI23
aI22
aI31
aI1
aI1
aI1
aI1
aI1
aI31
aI126
aa(lp14
I31
aI30
aI30
aI30
aI30
aI30
aI27
aI20
aI21
aI21
aI21
aI20
aI31
aI30
aI30
aI30
aI30
aI30
aI27
aI126
aa(lp15
I31
aI1
aI1
aI1
aI1
aI1
aI31
aI1
aI1
aI1
aI1
aI1
aI31
aI1
aI1
aI1
aI1
aI1
aI31
aI126
aa(lp16
I31
aI1
aI1
aI40
aI38
aI30
aI75
aI1
aI28
aI28
aI28
aI1
aI51
aI30
aI38
aI27
aI1
aI1
aI31
aI126
aa(lp17
I31
aI30
aI30
aI27
aI1
aI1
aI1
aI1
aI28
aI121
aI28
aI1
aI1
aI1
aI1
aI31
aI30
aI30
aI27
aI126
aa(lp18
I31
aI1
aI1
aI51
aI38
aI30
aI27
aI1
aI1
aI1
aI1
aI1
aI40
aI30
aI38
aI75
aI1
aI1
aI31
aI126
aa(lp19
I31
aI1
aI1
aI1
aI1
aI1
aI31
aI1
aI1
aI1
aI1
aI1
aI31
aI1
aI1
aI1
aI1
aI1
aI31
aI126
aa(lp20
I51
aI30
aI30
aI30
aI30
aI30
aI30
aI30
aI30
aI30
aI30
aI30
aI30
aI30
aI30
aI30
aI30
aI30
aI75
aI126
aaI1
(I19
I0
tp21
(I9
I16
tp22
(I9
I17
tp23
(dp24
(dp25
tp26
.