((lp0
(lp1
I40
aI30
aI30
aI30
aI30
aI30
aI27
aI30
aI30
aI30
aI30
aI30
aI27
aI30
aI30
aI30
aI30
aI30
aI30
aI27
aa(lp2
I31
aI1
aI1
aI1
aI1
aI1
aI31
aI1
aI1
aI1
aI1
aI1
aI31
aI1
aI1
aI1
aI1
aI1
aI1
aI31
aa(lp3
I31
aI1
aI1
aI40
aI38
aI30
aI75
aI1
aI1
aI1
aI1
aI1
aI51
aI28
aI38
aI28
aI1
aI1
aI1
aI31
aa(lp4
I31
aI30
aI30
aI27
aI1
aI1
aI1
aI1
aI28
aI120
aI28
aI1
aI1
aI1
aI1
aI28
aI30
aI30
aI30
aI31
aa(lp5
I31
aI1
aI1
aI51
aI38
aI30
aI27
aI1
aI28
aI28
aI28
aI1
aI40
aI28
aI38
aI75
aI1
aI1
aI1
aI31
aa(lp6
I31
aI1
aI1
aI1
aI1
aI1
aI31
aI1
aI1
aI1
aI1
aI1
aI31
aI1
aI1
aI1
aI1
aI1
aI1
aI31
aa(lp7
I31
aI30
aI30
aI30
aI30
aI30
aI27
aI1
aI28
aI1
aI28
aI1
aI31
aI30
aI30
aI30
aI30
aI30
aI30
aI31
aa(lp8
I31
aI1
aI1
aI1
aI1
aI1
aI31
aI1
aI28
aI1
aI28
aI1
aI31
aI1
aI1
aI1
aI1
aI1
aI1
aI31
aa(lp9
I31
aI1
aI1
aI1
aI1
aI1
aI31
aI1
aI28
aI1
aI28
aI1
aI31
aI1
aI1
aI1
aI1
aI1
aI1
aI31
aa(lp10
I31
aI1
aI40
aI30
aI30
aI38
aI75
aI1
aI1
aI1
aI1
aI1
aI51
aI38
aI30
aI27
aI30
aI27
aI1
aI31
aa(lp11
I31
aI30
aI75
aI1
aI81
aI1
aI1
aI1
aI1
aI1
aI1
aI1
aI1
aI1
aI1
aI81
aI1
aI51
aI30
aI31
aa(lp12
I31
aI1
aI1
aI1
aI51
aI30
aI27
aI1
aI1
aI1
aI1
aI1
aI40
aI28
aI28
aI75
aI1
aI1
aI1
aI31
aa(lp13
I31
aI1
aI1
aI1
aI1
aI1
aI31
aI1
aI28
aI1
aI28
aI1
aI31
aI1
aI1
aI1
aI1
aI1
aI1
aI31
aa(lp14
I31
aI30
aI30
aI30
aI30
aI30
aI31
aI1
aI28
aI1
aI28
aI1
aI31
aI30
aI30
aI30
aI30
aI30
aI30
aI31
aa(lp15
I31
aI1
aI1
aI1
aI1
aI1
aI31
aI1
aI1
aI1
aI1
aI1
aI31
aI1
aI1
aI1
aI1
aI1
aI1
aI31
aa(lp16
I31
aI1
aI1
aI40
aI38
aI30
aI75
aI1
aI40
aI121
aI31
aI1
aI51
aI28
aI38
aI28
aI1
aI1
aI1
aI31
aa(lp17
I31
aI30
aI30
aI27
aI1
aI1
aI1
aI1
aI51
aI30
aI75
aI1
aI1
aI1
aI1
aI28
aI30
aI30
aI30
aI31
aa(lp18
I31
aI1
aI1
aI51
aI38
aI30
aI27
aI1
aI1
aI1
aI1
aI1
aI40
aI30
aI38
aI75
aI1
aI1
aI1
aI31
aa(lp19
I31
aI1
aI1
aI1
aI1
aI1
aI31
aI1
aI1
aI1
aI1
aI1
aI31
aI1
aI1
aI1
aI1
aI1
aI1
aI31
aa(lp20
I51
aI30
aI30
aI30
aI30
aI30
aI30
aI30
aI30
aI30
aI30
aI30
aI30
aI30
aI30
aI30
aI30
aI30
aI30
aI75
aa(I9
I3
tp21
(I9
I15
tp22
(I9
I17
tp23
(dp24
tp25
.