((lp0
(lp1
I8
aI8
aI8
aI8
aI8
aI8
aI8
aI8
aI8
aI8
aI8
aI8
aI8
aI8
aI8
aI8
aI8
aI8
aI8
aI8
aI8
aI8
aI8
aI28
aI8
aI8
aI8
aI8
aI8
aI8
aI8
aI8
aI8
aI8
aI8
aI8
aI8
aI8
aI8
aI8
aa(lp2
I8
aI8
aI8
aI8
aI8
aI8
aI8
aI8
aI8
aI8
aI8
aI8
aI8
aI84
aI8
aI84
aI8
aI84
aI8
aI84
aI8
aI8
aI28
aI120
aI28
aI8
aI8
aI84
aI8
aI84
aI8
aI84
aI8
aI84
aI8
aI8
aI8
aI8
aI8
aI8
aa(lp3
I8
aI8
aI8
aI8
aI8
aI8
aI8
aI8
aI8
aI8
aI8
aI8
aI8
aI28
aI28
aI28
aI28
aI28
aI28
aI28
aI28
aI8
aI28
aI5
aI28
aI8
aI28
aI28
aI28
aI28
aI28
aI28
aI28
aI28
aI8
aI8
aI8
aI8
aI8
aI8
aa(lp4
I8
aI8
aI8
aI8
aI8
aI8
aI8
aI8
aI8
aI8
aI8
aI8
aI8
aI28
aI5
aI5
aI5
aI5
aI5
aI5
aI5
aI28
aI28
aI5
aI28
aI28
aI5
aI5
aI5
aI5
aI5
aI5
aI5
aI28
aI8
aI8
aI8
aI8
aI8
aI8
aa(lp5
I8
aI8
aI8
aI8
aI8
aI8
aI8
aI8
aI8
aI8
aI8
aI8
aI28
aI5
aI5
aI5
aI5
aI5
aI5
aI5
aI5
aI5
aI5
aI5
aI5
aI5
aI5
aI5
aI5
aI5
aI5
aI5
aI5
aI5
aI28
aI8
aI8
aI8
aI8
aI8
aa(lp6
I8
aI8
aI8
aI8
aI8
aI8
aI8
aI8
aI8
aI8
aI8
aI8
aI28
aI28
aI38
aI28
aI28
aI28
aI28
aI28
aI28
aI28
aI28
aI28
aI28
aI28
aI28
aI28
aI28
aI28
aI28
aI28
aI38
aI28
aI28
aI8
aI8
aI8
aI8
aI8
aa(lp7
I8
aI8
aI8
aI8
aI8
aI8
aI8
aI8
aI8
aI8
aI8
aI8
aI28
aI5
aI5
aI5
aI5
aI5
aI28
aI5
aI5
aI5
aI5
aI5
aI5
aI5
aI5
aI5
aI28
aI5
aI5
aI5
aI5
aI5
aI28
aI8
aI8
aI8
aI8
aI8
aa(lp8
I8
aI8
aI8
aI8
aI8
aI8
aI8
aI8
aI8
aI8
aI8
aI8
aI28
aI5
aI5
aI5
aI5
aI5
aI28
aI5
aI5
aI5
aI5
aI5
aI5
aI5
aI5
aI5
aI28
aI5
aI5
aI5
aI5
aI5
aI28
aI8
aI8
aI8
aI8
aI8
aa(lp9
I8
aI8
aI8
aI8
aI8
aI8
aI8
aI8
aI8
aI8
aI8
aI8
aI28
aI5
aI5
aI5
aI5
aI5
aI28
aI5
aI5
aI5
aI5
aI5
aI5
aI5
aI5
aI5
aI28
aI5
aI5
aI5
aI5
aI5
aI28
aI8
aI8
aI8
aI8
aI8
aa(lp10
I8
aI8
aI8
aI8
aI8
aI8
aI8
aI8
aI8
aI8
aI8
aI8
aI28
aI5
aI5
aI5
aI5
aI5
aI28
aI5
aI5
aI5
aI5
aI5
aI5
aI5
aI5
aI5
aI28
aI5
aI5
aI5
aI5
aI5
aI28
aI8
aI8
aI8
aI8
aI8
aa(lp11
I8
aI8
aI8
aI8
aI8
aI8
aI8
aI8
aI8
aI8
aI8
aI8
aI28
aI5
aI5
aI5
aI5
aI5
aI28
aI5
aI5
aI5
aI5
aI5
aI5
aI5
aI5
aI5
aI28
aI5
aI5
aI5
aI5
aI5
aI28
aI8
aI8
aI8
aI8
aI8
aa(lp12
I8
aI8
aI8
aI8
aI8
aI8
aI8
aI8
aI8
aI8
aI8
aI8
aI28
aI28
aI28
aI38
aI28
aI28
aI28
aI5
aI5
aI5
aI5
aI5
aI5
aI5
aI5
aI5
aI28
aI28
aI28
aI38
aI28
aI28
aI28
aI8
aI8
aI8
aI8
aI8
aa(lp13
I8
aI8
aI8
aI8
aI8
aI8
aI8
aI8
aI8
aI8
aI8
aI8
aI28
aI5
aI5
aI5
aI5
aI5
aI5
aI28
aI5
aI5
aI5
aI5
aI5
aI5
aI5
aI28
aI5
aI5
aI5
aI5
aI5
aI5
aI28
aI8
aI8
aI8
aI8
aI8
aa(lp14
I8
aI8
aI8
aI8
aI5
aI8
aI8
aI8
aI8
aI8
aI8
aI8
aI28
aI5
aI5
aI5
aI5
aI5
aI5
aI28
aI5
aI5
aI5
aI5
aI5
aI5
aI5
aI28
aI5
aI5
aI5
aI5
aI5
aI5
aI28
aI8
aI8
aI8
aI8
aI8
aa(lp15
I8
aI8
aI8
aI8
aI8
aI8
aI8
aI8
aI8
aI8
aI8
aI8
aI28
aI5
aI5
aI5
aI5
aI5
aI5
aI28
aI5
aI5
aI5
aI5
aI5
aI5
aI5
aI28
aI5
aI5
aI5
aI5
aI5
aI5
aI28
aI8
aI8
aI8
aI8
aI8
aa(lp16
I8
aI8
aI8
aI8
aI8
aI8
aI8
aI8
aI8
aI8
aI8
aI8
aI28
aI5
aI5
aI5
aI5
aI5
aI5
aI5
aI28
aI5
aI5
aI5
aI5
aI5
aI28
aI5
aI5
aI5
aI5
aI5
aI5
aI5
aI28
aI8
aI8
aI8
aI8
aI8
aa(lp17
I8
aI8
aI8
aI8
aI8
aI8
aI8
aI8
aI8
aI8
aI8
aI8
aI28
aI5
aI5
aI5
aI5
aI5
aI5
aI5
aI28
aI5
aI5
aI5
aI5
aI5
aI28
aI5
aI5
aI5
aI5
aI5
aI5
aI5
aI28
aI8
aI8
aI8
aI8
aI8
aa(lp18
I8
aI8
aI8
aI8
aI8
aI8
aI8
aI8
aI8
aI8
aI8
aI8
aI28
aI5
aI5
aI5
aI5
aI28
aI28
aI28
aI28
aI5
aI5
aI5
aI5
aI5
aI28
aI28
aI28
aI28
aI5
aI5
aI5
aI5
aI28
aI8
aI8
aI8
aI8
aI8
aa(lp19
I8
aI8
aI8
aI8
aI8
aI8
aI8
aI8
aI8
aI8
aI8
aI8
aI28
aI5
aI5
aI5
aI38
aI5
aI5
aI5
aI5
aI28
aI5
aI5
aI5
aI28
aI5
aI5
aI5
aI5
aI38
aI5
aI5
aI5
aI28
aI8
aI8
aI8
aI8
aI8
aa(lp20
I8
aI8
aI8
aI8
aI8
aI8
aI8
aI8
aI8
aI8
aI8
aI8
aI28
aI28
aI28
aI5
aI28
aI5
aI5
aI5
aI5
aI38
aI5
aI5
aI5
aI38
aI5
aI5
aI5
aI5
aI28
aI5
aI28
aI28
aI28
aI8
aI8
aI8
aI8
aI8
aa(lp21
I8
aI8
aI8
aI8
aI8
aI8
aI8
aI8
aI8
aI8
aI8
aI8
aI8
aI8
aI8
aI28
aI28
aI5
aI5
aI5
aI5
aI28
aI28
aI28
aI28
aI28
aI5
aI5
aI5
aI5
aI28
aI28
aI8
aI8
aI8
aI8
aI8
aI8
aI8
aI8
aa(lp22
I8
aI8
aI8
aI8
aI8
aI8
aI8
aI8
aI8
aI8
aI8
aI8
aI8
aI8
aI8
aI8
aI28
aI5
aI5
aI5
aI5
aI28
aI8
aI8
aI8
aI28
aI5
aI5
aI5
aI5
aI28
aI8
aI8
aI8
aI8
aI8
aI8
aI8
aI8
aI8
aa(lp23
I8
aI8
aI8
aI8
aI8
aI8
aI8
aI8
aI8
aI8
aI8
aI8
aI8
aI8
aI8
aI8
aI8
aI28
aI28
aI28
aI28
aI8
aI8
aI8
aI8
aI8
aI28
aI28
aI28
aI28
aI8
aI8
aI8
aI8
aI8
aI8
aI8
aI8
aI8
aI8
aa(lp24
I8
aI8
aI8
aI8
aI8
aI8
aI8
aI8
aI8
aI8
aI8
aI8
aI8
aI8
aI8
aI8
aI8
aI8
aI8
aI8
aI8
aI8
aI8
aI8
aI8
aI8
aI8
aI8
aI8
aI8
aI8
aI8
aI8
aI8
aI8
aI8
aI8
aI8
aI8
aI8
aa(lp25
I8
aI8
aI8
aI8
aI8
aI8
aI8
aI8
aI8
aI8
aI8
aI8
aI8
aI8
aI8
aI8
aI8
aI8
aI8
aI8
aI8
aI8
aI8
aI8
aI8
aI8
aI8
aI8
aI8
aI8
aI8
aI8
aI8
aI8
aI8
aI8
aI8
aI8
aI8
aI8
aa(lp26
I8
aI8
aI8
aI8
aI8
aI8
aI8
aI8
aI8
aI8
aI8
aI8
aI8
aI8
aI8
aI8
aI8
aI8
aI8
aI8
aI8
aI8
aI8
aI8
aI8
aI8
aI8
aI8
aI8
aI8
aI8
aI8
aI8
aI8
aI8
aI8
aI8
aI8
aI8
aI8
aa(lp27
I8
aI8
aI8
aI8
aI8
aI8
aI8
aI8
aI8
aI8
aI8
aI8
aI8
aI8
aI8
aI8
aI8
aI8
aI8
aI8
aI8
aI8
aI8
aI8
aI8
aI8
aI8
aI8
aI8
aI8
aI8
aI8
aI8
aI8
aI8
aI8
aI8
aI8
aI8
aI8
aa(lp28
I8
aI8
aI8
aI8
aI8
aI8
aI8
aI8
aI8
aI8
aI8
aI8
aI8
aI8
aI8
aI8
aI8
aI8
aI8
aI8
aI8
aI8
aI8
aI8
aI8
aI8
aI8
aI8
aI8
aI8
aI8
aI8
aI8
aI8
aI8
aI8
aI8
aI8
aI8
aI8
aa(lp29
I8
aI8
aI8
aI8
aI8
aI8
aI8
aI8
aI8
aI8
aI8
aI8
aI8
aI8
aI8
aI8
aI8
aI8
aI8
aI8
aI8
aI8
aI8
aI8
aI8
aI8
aI8
aI8
aI8
aI8
aI8
aI8
aI8
aI8
aI8
aI8
aI8
aI8
aI8
aI8
aa(lp30
I8
aI8
aI8
aI8
aI8
aI8
aI8
aI8
aI8
aI8
aI8
aI8
aI8
aI8
aI8
aI8
aI8
aI8
aI8
aI8
aI8
aI8
aI8
aI8
aI8
aI8
aI8
aI8
aI8
aI8
aI8
aI8
aI8
aI8
aI8
aI8
aI8
aI8
aI8
aI8
aa(lp31
I8
aI8
aI8
aI8
aI8
aI8
aI8
aI8
aI8
aI8
aI8
aI8
aI8
aI8
aI8
aI8
aI8
aI8
aI8
aI8
aI8
aI8
aI8
aI8
aI8
aI8
aI8
aI8
aI8
aI8
aI8
aI8
aI8
aI8
aI8
aI8
aI8
aI8
aI8
aI8
aa(lp32
I8
aI8
aI8
aI8
aI8
aI8
aI8
aI8
aI8
aI8
aI8
aI8
aI8
aI8
aI8
aI8
aI8
aI8
aI8
aI8
aI8
aI8
aI8
aI8
aI8
aI8
aI8
aI8
aI8
aI8
aI8
aI8
aI8
aI8
aI8
aI8
aI8
aI8
aI8
aI8
aa(lp33
I8
aI8
aI8
aI8
aI8
aI8
aI8
aI8
aI8
aI8
aI8
aI8
aI8
aI8
aI8
aI8
aI8
aI8
aI8
aI8
aI8
aI8
aI8
aI8
aI8
aI8
aI8
aI8
aI8
aI8
aI8
aI8
aI8
aI8
aI8
aI8
aI8
aI8
aI8
aI8
aa(lp34
I8
aI8
aI8
aI8
aI8
aI8
aI8
aI8
aI8
aI8
aI8
aI8
aI8
aI8
aI8
aI8
aI8
aI8
aI8
aI8
aI8
aI8
aI8
aI8
aI8
aI8
aI8
aI8
aI8
aI8
aI8
aI8
aI8
aI8
aI8
aI8
aI8
aI8
aI8
aI8
aa(lp35
I8
aI8
aI8
aI8
aI8
aI8
aI8
aI8
aI8
aI8
aI8
aI8
aI8
aI8
aI8
aI8
aI8
aI8
aI8
aI8
aI8
aI8
aI8
aI8
aI8
aI8
aI8
aI8
aI8
aI8
aI8
aI8
aI8
aI8
aI8
aI8
aI8
aI8
aI8
aI8
aa(lp36
I8
aI8
aI8
aI8
aI8
aI8
aI8
aI8
aI8
aI8
aI8
aI8
aI8
aI8
aI8
aI8
aI8
aI8
aI8
aI8
aI8
aI8
aI8
aI8
aI8
aI8
aI8
aI8
aI8
aI8
aI8
aI8
aI8
aI8
aI8
aI8
aI8
aI8
aI8
aI8
aa(lp37
I8
aI8
aI8
aI8
aI8
aI8
aI8
aI8
aI8
aI8
aI8
aI8
aI8
aI8
aI8
aI8
aI8
aI8
aI8
aI8
aI8
aI8
aI8
aI8
aI8
aI8
aI8
aI8
aI8
aI8
aI8
aI8
aI8
aI8
aI8
aI8
aI8
aI8
aI8
aI8
aa(lp38
I8
aI8
aI8
aI8
aI8
aI8
aI8
aI8
aI8
aI8
aI8
aI8
aI8
aI8
aI8
aI8
aI8
aI8
aI8
aI8
aI8
aI8
aI8
aI8
aI8
aI8
aI8
aI8
aI8
aI8
aI8
aI8
aI8
aI8
aI8
aI8
aI8
aI8
aI8
aI8
aa(lp39
I8
aI8
aI8
aI8
aI8
aI8
aI8
aI8
aI8
aI8
aI8
aI8
aI8
aI8
aI8
aI8
aI8
aI8
aI8
aI8
aI8
aI8
aI8
aI8
aI8
aI8
aI8
aI8
aI8
aI8
aI8
aI8
aI8
aI8
aI8
aI8
aI8
aI8
aI8
aI8
aa(lp40
I8
aI8
aI8
aI8
aI8
aI8
aI8
aI8
aI8
aI8
aI8
aI8
aI8
aI8
aI8
aI8
aI8
aI8
aI8
aI8
aI8
aI8
aI8
aI0
aI8
aI8
aI8
aI8
aI8
aI8
aI8
aI8
aI8
aI8
aI8
aI8
aI8
aI8
aI8
aI8
aaI5
(I23
I1
tp41
(I13
I1
tp42
(I23
I35
tp43
(dp44
(dp45
(I20
I20
tp46
(lp47
(I4
I1
tp48
as(I12
I20
tp49
(lp50
g48
astp51
.