((lp0
(lp1
(iMAP.tile
Tile
p2
(dp3
S'y'
p4
I0
sS'x'
p5
I0
sS'bg'
p6
I0
sS'fg'
p7
I71
sba(iMAP.tile
Tile
p8
(dp9
g4
I1
sg5
I0
sg6
I0
sg7
I71
sba(iMAP.tile
Tile
p10
(dp11
g4
I2
sg5
I0
sg6
I0
sg7
I71
sba(iMAP.tile
Tile
p12
(dp13
g4
I3
sg5
I0
sg6
I0
sg7
I71
sba(iMAP.tile
Tile
p14
(dp15
g4
I4
sg5
I0
sg6
I0
sg7
I71
sba(iMAP.tile
Tile
p16
(dp17
g4
I5
sg5
I0
sg6
I0
sg7
I71
sba(iMAP.tile
Tile
p18
(dp19
g4
I6
sg5
I0
sg6
I0
sg7
I71
sba(iMAP.tile
Tile
p20
(dp21
g4
I7
sg5
I0
sg6
I0
sg7
I71
sba(iMAP.tile
Tile
p22
(dp23
g4
I8
sg5
I0
sg6
I0
sg7
I71
sba(iMAP.tile
Tile
p24
(dp25
g4
I9
sg5
I0
sg6
I0
sg7
I71
sba(iMAP.tile
Tile
p26
(dp27
g4
I10
sg5
I0
sg6
I0
sg7
I71
sba(iMAP.tile
Tile
p28
(dp29
g4
I11
sg5
I0
sg6
I0
sg7
I71
sba(iMAP.tile
Tile
p30
(dp31
g4
I12
sg5
I0
sg6
I0
sg7
I71
sba(iMAP.tile
Tile
p32
(dp33
g4
I13
sg5
I0
sg6
I0
sg7
I71
sba(iMAP.tile
Tile
p34
(dp35
g4
I14
sg5
I0
sg6
I0
sg7
I71
sba(iMAP.tile
Tile
p36
(dp37
g4
I15
sg5
I0
sg6
I0
sg7
I71
sba(iMAP.tile
Tile
p38
(dp39
g4
I16
sg5
I0
sg6
I0
sg7
I71
sba(iMAP.tile
Tile
p40
(dp41
g4
I17
sg5
I0
sg6
I0
sg7
I71
sba(iMAP.tile
Tile
p42
(dp43
g4
I18
sg5
I0
sg6
I0
sg7
I71
sba(iMAP.tile
Tile
p44
(dp45
g4
I19
sg5
I0
sg6
I0
sg7
I71
sba(iMAP.tile
Tile
p46
(dp47
g4
I20
sg5
I0
sg6
I0
sg7
I71
sba(iMAP.tile
Tile
p48
(dp49
g4
I21
sg5
I0
sg6
I0
sg7
I71
sba(iMAP.tile
Tile
p50
(dp51
g4
I22
sg5
I0
sg6
I0
sg7
I71
sba(iMAP.tile
Tile
p52
(dp53
g4
I23
sg5
I0
sg6
I0
sg7
I71
sba(iMAP.tile
Tile
p54
(dp55
g4
I24
sg5
I0
sg6
I0
sg7
I71
sba(iMAP.tile
Tile
p56
(dp57
g4
I25
sg5
I0
sg6
I0
sg7
I71
sba(iMAP.tile
Tile
p58
(dp59
g4
I26
sg5
I0
sg6
I0
sg7
I71
sba(iMAP.tile
Tile
p60
(dp61
g4
I27
sg5
I0
sg6
I0
sg7
I71
sba(iMAP.tile
Tile
p62
(dp63
g4
I28
sg5
I0
sg6
I0
sg7
I71
sba(iMAP.tile
Tile
p64
(dp65
g4
I29
sg5
I0
sg6
I0
sg7
I71
sba(iMAP.tile
Tile
p66
(dp67
g4
I30
sg5
I0
sg6
I0
sg7
I71
sba(iMAP.tile
Tile
p68
(dp69
g4
I31
sg5
I0
sg6
I0
sg7
I71
sba(iMAP.tile
Tile
p70
(dp71
g4
I32
sg5
I0
sg6
I0
sg7
I71
sba(iMAP.tile
Tile
p72
(dp73
g4
I33
sg5
I0
sg6
I0
sg7
I71
sba(iMAP.tile
Tile
p74
(dp75
g4
I34
sg5
I0
sg6
I0
sg7
I71
sba(iMAP.tile
Tile
p76
(dp77
g4
I35
sg5
I0
sg6
I0
sg7
I71
sba(iMAP.tile
Tile
p78
(dp79
g4
I36
sg5
I0
sg6
I0
sg7
I71
sba(iMAP.tile
Tile
p80
(dp81
g4
I37
sg5
I0
sg6
I0
sg7
I71
sba(iMAP.tile
Tile
p82
(dp83
g4
I38
sg5
I0
sg6
I0
sg7
I71
sba(iMAP.tile
Tile
p84
(dp85
g4
I39
sg5
I0
sg6
I0
sg7
I71
sbaa(lp86
(iMAP.tile
Tile
p87
(dp88
g4
I0
sg5
I1
sg6
I0
sg7
I71
sba(iMAP.tile
Tile
p89
(dp90
g4
I1
sg5
I1
sg6
I0
sg7
I71
sba(iMAP.tile
Tile
p91
(dp92
g4
I2
sg5
I1
sg6
I0
sg7
I71
sba(iMAP.tile
Tile
p93
(dp94
g4
I3
sg5
I1
sg6
I0
sg7
I71
sba(iMAP.tile
Tile
p95
(dp96
g4
I4
sg5
I1
sg6
I0
sg7
I71
sba(iMAP.tile
Tile
p97
(dp98
g4
I5
sg5
I1
sg6
I0
sg7
I71
sba(iMAP.tile
Tile
p99
(dp100
g4
I6
sg5
I1
sg6
I0
sg7
I71
sba(iMAP.tile
Tile
p101
(dp102
g4
I7
sg5
I1
sg6
I0
sg7
I71
sba(iMAP.tile
Tile
p103
(dp104
g4
I8
sg5
I1
sg6
I0
sg7
I71
sba(iMAP.tile
Tile
p105
(dp106
g4
I9
sg5
I1
sg6
I0
sg7
I71
sba(iMAP.tile
Tile
p107
(dp108
g4
I10
sg5
I1
sg6
I0
sg7
I71
sba(iMAP.tile
Tile
p109
(dp110
g4
I11
sg5
I1
sg6
I0
sg7
I71
sba(iMAP.tile
Tile
p111
(dp112
g4
I12
sg5
I1
sg6
I0
sg7
I71
sba(iMAP.tile
Tile
p113
(dp114
g4
I13
sg5
I1
sg6
I0
sg7
I71
sba(iMAP.tile
Tile
p115
(dp116
g4
I14
sg5
I1
sg6
I0
sg7
I71
sba(iMAP.tile
Tile
p117
(dp118
g4
I15
sg5
I1
sg6
I0
sg7
I71
sba(iMAP.tile
Tile
p119
(dp120
g4
I16
sg5
I1
sg6
I0
sg7
I71
sba(iMAP.tile
Tile
p121
(dp122
g4
I17
sg5
I1
sg6
I0
sg7
I71
sba(iMAP.tile
Tile
p123
(dp124
g4
I18
sg5
I1
sg6
I0
sg7
I71
sba(iMAP.tile
Tile
p125
(dp126
g4
I19
sg5
I1
sg6
I0
sg7
I71
sba(iMAP.tile
Tile
p127
(dp128
g4
I20
sg5
I1
sg6
I0
sg7
I71
sba(iMAP.tile
Tile
p129
(dp130
g4
I21
sg5
I1
sg6
I0
sg7
I71
sba(iMAP.tile
Tile
p131
(dp132
g4
I22
sg5
I1
sg6
I0
sg7
I71
sba(iMAP.tile
Tile
p133
(dp134
g4
I23
sg5
I1
sg6
I0
sg7
I71
sba(iMAP.tile
Tile
p135
(dp136
g4
I24
sg5
I1
sg6
I0
sg7
I71
sba(iMAP.tile
Tile
p137
(dp138
g4
I25
sg5
I1
sg6
I0
sg7
I71
sba(iMAP.tile
Tile
p139
(dp140
g4
I26
sg5
I1
sg6
I0
sg7
I71
sba(iMAP.tile
Tile
p141
(dp142
g4
I27
sg5
I1
sg6
I0
sg7
I71
sba(iMAP.tile
Tile
p143
(dp144
g4
I28
sg5
I1
sg6
I0
sg7
I71
sba(iMAP.tile
Tile
p145
(dp146
g4
I29
sg5
I1
sg6
I0
sg7
I71
sba(iMAP.tile
Tile
p147
(dp148
g4
I30
sg5
I1
sg6
I0
sg7
I71
sba(iMAP.tile
Tile
p149
(dp150
g4
I31
sg5
I1
sg6
I0
sg7
I71
sba(iMAP.tile
Tile
p151
(dp152
g4
I32
sg5
I1
sg6
I0
sg7
I71
sba(iMAP.tile
Tile
p153
(dp154
g4
I33
sg5
I1
sg6
I0
sg7
I71
sba(iMAP.tile
Tile
p155
(dp156
g4
I34
sg5
I1
sg6
I0
sg7
I71
sba(iMAP.tile
Tile
p157
(dp158
g4
I35
sg5
I1
sg6
I0
sg7
I71
sba(iMAP.tile
Tile
p159
(dp160
g4
I36
sg5
I1
sg6
I0
sg7
I71
sba(iMAP.tile
Tile
p161
(dp162
g4
I37
sg5
I1
sg6
I0
sg7
I71
sba(iMAP.tile
Tile
p163
(dp164
g4
I38
sg5
I1
sg6
I0
sg7
I71
sba(iMAP.tile
Tile
p165
(dp166
g4
I39
sg5
I1
sg6
I0
sg7
I71
sbaa(lp167
(iMAP.tile
Tile
p168
(dp169
g4
I0
sg5
I2
sg6
I0
sg7
I71
sba(iMAP.tile
Tile
p170
(dp171
g4
I1
sg5
I2
sg6
I0
sg7
I71
sba(iMAP.tile
Tile
p172
(dp173
g4
I2
sg5
I2
sg6
I0
sg7
I71
sba(iMAP.tile
Tile
p174
(dp175
g4
I3
sg5
I2
sg6
I0
sg7
I71
sba(iMAP.tile
Tile
p176
(dp177
g4
I4
sg5
I2
sg6
I0
sg7
I71
sba(iMAP.tile
Tile
p178
(dp179
g4
I5
sg5
I2
sg6
I0
sg7
I71
sba(iMAP.tile
Tile
p180
(dp181
g4
I6
sg5
I2
sg6
I0
sg7
I71
sba(iMAP.tile
Tile
p182
(dp183
g4
I7
sg5
I2
sg6
I0
sg7
I71
sba(iMAP.tile
Tile
p184
(dp185
g4
I8
sg5
I2
sg6
I0
sg7
I71
sba(iMAP.tile
Tile
p186
(dp187
g4
I9
sg5
I2
sg6
I0
sg7
I71
sba(iMAP.tile
Tile
p188
(dp189
g4
I10
sg5
I2
sg6
I0
sg7
I71
sba(iMAP.tile
Tile
p190
(dp191
g4
I11
sg5
I2
sg6
I0
sg7
I71
sba(iMAP.tile
Tile
p192
(dp193
g4
I12
sg5
I2
sg6
I0
sg7
I71
sba(iMAP.tile
Tile
p194
(dp195
g4
I13
sg5
I2
sg6
I0
sg7
I71
sba(iMAP.tile
Tile
p196
(dp197
g4
I14
sg5
I2
sg6
I0
sg7
I71
sba(iMAP.tile
Tile
p198
(dp199
g4
I15
sg5
I2
sg6
I0
sg7
I71
sba(iMAP.tile
Tile
p200
(dp201
g4
I16
sg5
I2
sg6
I0
sg7
I71
sba(iMAP.tile
Tile
p202
(dp203
g4
I17
sg5
I2
sg6
I0
sg7
I71
sba(iMAP.tile
Tile
p204
(dp205
g4
I18
sg5
I2
sg6
I0
sg7
I71
sba(iMAP.tile
Tile
p206
(dp207
g4
I19
sg5
I2
sg6
I0
sg7
I71
sba(iMAP.tile
Tile
p208
(dp209
g4
I20
sg5
I2
sg6
I0
sg7
I71
sba(iMAP.tile
Tile
p210
(dp211
g4
I21
sg5
I2
sg6
I0
sg7
I71
sba(iMAP.tile
Tile
p212
(dp213
g4
I22
sg5
I2
sg6
I0
sg7
I71
sba(iMAP.tile
Tile
p214
(dp215
g4
I23
sg5
I2
sg6
I0
sg7
I71
sba(iMAP.tile
Tile
p216
(dp217
g4
I24
sg5
I2
sg6
I0
sg7
I71
sba(iMAP.tile
Tile
p218
(dp219
g4
I25
sg5
I2
sg6
I0
sg7
I71
sba(iMAP.tile
Tile
p220
(dp221
g4
I26
sg5
I2
sg6
I0
sg7
I71
sba(iMAP.tile
Tile
p222
(dp223
g4
I27
sg5
I2
sg6
I0
sg7
I71
sba(iMAP.tile
Tile
p224
(dp225
g4
I28
sg5
I2
sg6
I0
sg7
I71
sba(iMAP.tile
Tile
p226
(dp227
g4
I29
sg5
I2
sg6
I0
sg7
I71
sba(iMAP.tile
Tile
p228
(dp229
g4
I30
sg5
I2
sg6
I0
sg7
I71
sba(iMAP.tile
Tile
p230
(dp231
g4
I31
sg5
I2
sg6
I0
sg7
I71
sba(iMAP.tile
Tile
p232
(dp233
g4
I32
sg5
I2
sg6
I0
sg7
I71
sba(iMAP.tile
Tile
p234
(dp235
g4
I33
sg5
I2
sg6
I0
sg7
I71
sba(iMAP.tile
Tile
p236
(dp237
g4
I34
sg5
I2
sg6
I0
sg7
I71
sba(iMAP.tile
Tile
p238
(dp239
g4
I35
sg5
I2
sg6
I0
sg7
I71
sba(iMAP.tile
Tile
p240
(dp241
g4
I36
sg5
I2
sg6
I0
sg7
I71
sba(iMAP.tile
Tile
p242
(dp243
g4
I37
sg5
I2
sg6
I0
sg7
I71
sba(iMAP.tile
Tile
p244
(dp245
g4
I38
sg5
I2
sg6
I0
sg7
I71
sba(iMAP.tile
Tile
p246
(dp247
g4
I39
sg5
I2
sg6
I0
sg7
I71
sbaa(lp248
(iMAP.tile
Tile
p249
(dp250
g4
I0
sg5
I3
sg6
I0
sg7
I71
sba(iMAP.tile
Tile
p251
(dp252
g4
I1
sg5
I3
sg6
I0
sg7
I71
sba(iMAP.tile
Tile
p253
(dp254
g4
I2
sg5
I3
sg6
I0
sg7
I71
sba(iMAP.tile
Tile
p255
(dp256
g4
I3
sg5
I3
sg6
I0
sg7
I71
sba(iMAP.tile
Tile
p257
(dp258
g4
I4
sg5
I3
sg6
I0
sg7
I71
sba(iMAP.tile
Tile
p259
(dp260
g4
I5
sg5
I3
sg6
I0
sg7
I71
sba(iMAP.tile
Tile
p261
(dp262
g4
I6
sg5
I3
sg6
I0
sg7
I71
sba(iMAP.tile
Tile
p263
(dp264
g4
I7
sg5
I3
sg6
I0
sg7
I71
sba(iMAP.tile
Tile
p265
(dp266
g4
I8
sg5
I3
sg6
I0
sg7
I71
sba(iMAP.tile
Tile
p267
(dp268
g4
I9
sg5
I3
sg6
I0
sg7
I71
sba(iMAP.tile
Tile
p269
(dp270
g4
I10
sg5
I3
sg6
I0
sg7
I71
sba(iMAP.tile
Tile
p271
(dp272
g4
I11
sg5
I3
sg6
I0
sg7
I71
sba(iMAP.tile
Tile
p273
(dp274
g4
I12
sg5
I3
sg6
I0
sg7
I71
sba(iMAP.tile
Tile
p275
(dp276
g4
I13
sg5
I3
sg6
I0
sg7
I71
sba(iMAP.tile
Tile
p277
(dp278
g4
I14
sg5
I3
sg6
I0
sg7
I71
sba(iMAP.tile
Tile
p279
(dp280
g4
I15
sg5
I3
sg6
I0
sg7
I71
sba(iMAP.tile
Tile
p281
(dp282
g4
I16
sg5
I3
sg6
I0
sg7
I71
sba(iMAP.tile
Tile
p283
(dp284
g4
I17
sg5
I3
sg6
I0
sg7
I71
sba(iMAP.tile
Tile
p285
(dp286
g4
I18
sg5
I3
sg6
I0
sg7
I71
sba(iMAP.tile
Tile
p287
(dp288
g4
I19
sg5
I3
sg6
I0
sg7
I71
sba(iMAP.tile
Tile
p289
(dp290
g4
I20
sg5
I3
sg6
I0
sg7
I71
sba(iMAP.tile
Tile
p291
(dp292
g4
I21
sg5
I3
sg6
I0
sg7
I71
sba(iMAP.tile
Tile
p293
(dp294
g4
I22
sg5
I3
sg6
I0
sg7
I71
sba(iMAP.tile
Tile
p295
(dp296
g4
I23
sg5
I3
sg6
I0
sg7
I71
sba(iMAP.tile
Tile
p297
(dp298
g4
I24
sg5
I3
sg6
I0
sg7
I71
sba(iMAP.tile
Tile
p299
(dp300
g4
I25
sg5
I3
sg6
I0
sg7
I71
sba(iMAP.tile
Tile
p301
(dp302
g4
I26
sg5
I3
sg6
I0
sg7
I71
sba(iMAP.tile
Tile
p303
(dp304
g4
I27
sg5
I3
sg6
I0
sg7
I71
sba(iMAP.tile
Tile
p305
(dp306
g4
I28
sg5
I3
sg6
I0
sg7
I71
sba(iMAP.tile
Tile
p307
(dp308
g4
I29
sg5
I3
sg6
I0
sg7
I71
sba(iMAP.tile
Tile
p309
(dp310
g4
I30
sg5
I3
sg6
I0
sg7
I71
sba(iMAP.tile
Tile
p311
(dp312
g4
I31
sg5
I3
sg6
I0
sg7
I71
sba(iMAP.tile
Tile
p313
(dp314
g4
I32
sg5
I3
sg6
I0
sg7
I71
sba(iMAP.tile
Tile
p315
(dp316
g4
I33
sg5
I3
sg6
I0
sg7
I71
sba(iMAP.tile
Tile
p317
(dp318
g4
I34
sg5
I3
sg6
I0
sg7
I71
sba(iMAP.tile
Tile
p319
(dp320
g4
I35
sg5
I3
sg6
I0
sg7
I71
sba(iMAP.tile
Tile
p321
(dp322
g4
I36
sg5
I3
sg6
I0
sg7
I71
sba(iMAP.tile
Tile
p323
(dp324
g4
I37
sg5
I3
sg6
I0
sg7
I71
sba(iMAP.tile
Tile
p325
(dp326
g4
I38
sg5
I3
sg6
I0
sg7
I71
sba(iMAP.tile
Tile
p327
(dp328
g4
I39
sg5
I3
sg6
I0
sg7
I71
sbaa(lp329
(iMAP.tile
Tile
p330
(dp331
g4
I0
sg5
I4
sg6
I0
sg7
I71
sba(iMAP.tile
Tile
p332
(dp333
g4
I1
sg5
I4
sg6
I0
sg7
I71
sba(iMAP.tile
Tile
p334
(dp335
g4
I2
sg5
I4
sg6
I0
sg7
I71
sba(iMAP.tile
Tile
p336
(dp337
g4
I3
sg5
I4
sg6
I0
sg7
I71
sba(iMAP.tile
Tile
p338
(dp339
g4
I4
sg5
I4
sg6
I0
sg7
I71
sba(iMAP.tile
Tile
p340
(dp341
g4
I5
sg5
I4
sg6
I0
sg7
I71
sba(iMAP.tile
Tile
p342
(dp343
g4
I6
sg5
I4
sg6
I0
sg7
I71
sba(iMAP.tile
Tile
p344
(dp345
g4
I7
sg5
I4
sg6
I0
sg7
I71
sba(iMAP.tile
Tile
p346
(dp347
g4
I8
sg5
I4
sg6
I0
sg7
I71
sba(iMAP.tile
Tile
p348
(dp349
g4
I9
sg5
I4
sg6
I0
sg7
I71
sba(iMAP.tile
Tile
p350
(dp351
g4
I10
sg5
I4
sg6
I0
sg7
I71
sba(iMAP.tile
Tile
p352
(dp353
g4
I11
sg5
I4
sg6
I0
sg7
I71
sba(iMAP.tile
Tile
p354
(dp355
g4
I12
sg5
I4
sg6
I0
sg7
I71
sba(iMAP.tile
Tile
p356
(dp357
g4
I13
sg5
I4
sg6
I0
sg7
I71
sba(iMAP.tile
Tile
p358
(dp359
g4
I14
sg5
I4
sg6
I0
sg7
I71
sba(iMAP.tile
Tile
p360
(dp361
g4
I15
sg5
I4
sg6
I0
sg7
I71
sba(iMAP.tile
Tile
p362
(dp363
g4
I16
sg5
I4
sg6
I0
sg7
I71
sba(iMAP.tile
Tile
p364
(dp365
g4
I17
sg5
I4
sg6
I0
sg7
I71
sba(iMAP.tile
Tile
p366
(dp367
g4
I18
sg5
I4
sg6
I0
sg7
I71
sba(iMAP.tile
Tile
p368
(dp369
g4
I19
sg5
I4
sg6
I0
sg7
I71
sba(iMAP.tile
Tile
p370
(dp371
g4
I20
sg5
I4
sg6
I0
sg7
I71
sba(iMAP.tile
Tile
p372
(dp373
g4
I21
sg5
I4
sg6
I0
sg7
I71
sba(iMAP.tile
Tile
p374
(dp375
g4
I22
sg5
I4
sg6
I0
sg7
I71
sba(iMAP.tile
Tile
p376
(dp377
g4
I23
sg5
I4
sg6
I0
sg7
I71
sba(iMAP.tile
Tile
p378
(dp379
g4
I24
sg5
I4
sg6
I0
sg7
I71
sba(iMAP.tile
Tile
p380
(dp381
g4
I25
sg5
I4
sg6
I0
sg7
I71
sba(iMAP.tile
Tile
p382
(dp383
g4
I26
sg5
I4
sg6
I0
sg7
I71
sba(iMAP.tile
Tile
p384
(dp385
g4
I27
sg5
I4
sg6
I0
sg7
I71
sba(iMAP.tile
Tile
p386
(dp387
g4
I28
sg5
I4
sg6
I0
sg7
I71
sba(iMAP.tile
Tile
p388
(dp389
g4
I29
sg5
I4
sg6
I0
sg7
I71
sba(iMAP.tile
Tile
p390
(dp391
g4
I30
sg5
I4
sg6
I0
sg7
I71
sba(iMAP.tile
Tile
p392
(dp393
g4
I31
sg5
I4
sg6
I0
sg7
I71
sba(iMAP.tile
Tile
p394
(dp395
g4
I32
sg5
I4
sg6
I0
sg7
I71
sba(iMAP.tile
Tile
p396
(dp397
g4
I33
sg5
I4
sg6
I0
sg7
I71
sba(iMAP.tile
Tile
p398
(dp399
g4
I34
sg5
I4
sg6
I0
sg7
I71
sba(iMAP.tile
Tile
p400
(dp401
g4
I35
sg5
I4
sg6
I0
sg7
I71
sba(iMAP.tile
Tile
p402
(dp403
g4
I36
sg5
I4
sg6
I0
sg7
I71
sba(iMAP.tile
Tile
p404
(dp405
g4
I37
sg5
I4
sg6
I0
sg7
I71
sba(iMAP.tile
Tile
p406
(dp407
g4
I38
sg5
I4
sg6
I0
sg7
I71
sba(iMAP.tile
Tile
p408
(dp409
g4
I39
sg5
I4
sg6
I0
sg7
I71
sbaa(lp410
(iMAP.tile
Tile
p411
(dp412
g4
I0
sg5
I5
sg6
I0
sg7
I71
sba(iMAP.tile
Tile
p413
(dp414
g4
I1
sg5
I5
sg6
I0
sg7
I71
sba(iMAP.tile
Tile
p415
(dp416
g4
I2
sg5
I5
sg6
I0
sg7
I71
sba(iMAP.tile
Tile
p417
(dp418
g4
I3
sg5
I5
sg6
I0
sg7
I71
sba(iMAP.tile
Tile
p419
(dp420
g4
I4
sg5
I5
sg6
I0
sg7
I71
sba(iMAP.tile
Tile
p421
(dp422
g4
I5
sg5
I5
sg6
I0
sg7
I71
sba(iMAP.tile
Tile
p423
(dp424
g4
I6
sg5
I5
sg6
I0
sg7
I71
sba(iMAP.tile
Tile
p425
(dp426
g4
I7
sg5
I5
sg6
I0
sg7
I71
sba(iMAP.tile
Tile
p427
(dp428
g4
I8
sg5
I5
sg6
I0
sg7
I71
sba(iMAP.tile
Tile
p429
(dp430
g4
I9
sg5
I5
sg6
I0
sg7
I71
sba(iMAP.tile
Tile
p431
(dp432
g4
I10
sg5
I5
sg6
I0
sg7
I71
sba(iMAP.tile
Tile
p433
(dp434
g4
I11
sg5
I5
sg6
I0
sg7
I71
sba(iMAP.tile
Tile
p435
(dp436
g4
I12
sg5
I5
sg6
I0
sg7
I71
sba(iMAP.tile
Tile
p437
(dp438
g4
I13
sg5
I5
sg6
I0
sg7
I71
sba(iMAP.tile
Tile
p439
(dp440
g4
I14
sg5
I5
sg6
I0
sg7
I71
sba(iMAP.tile
Tile
p441
(dp442
g4
I15
sg5
I5
sg6
I0
sg7
I71
sba(iMAP.tile
Tile
p443
(dp444
g4
I16
sg5
I5
sg6
I0
sg7
I71
sba(iMAP.tile
Tile
p445
(dp446
g4
I17
sg5
I5
sg6
I0
sg7
I71
sba(iMAP.tile
Tile
p447
(dp448
g4
I18
sg5
I5
sg6
I0
sg7
I71
sba(iMAP.tile
Tile
p449
(dp450
g4
I19
sg5
I5
sg6
I0
sg7
I71
sba(iMAP.tile
Tile
p451
(dp452
g4
I20
sg5
I5
sg6
I0
sg7
I71
sba(iMAP.tile
Tile
p453
(dp454
g4
I21
sg5
I5
sg6
I0
sg7
I71
sba(iMAP.tile
Tile
p455
(dp456
g4
I22
sg5
I5
sg6
I0
sg7
I71
sba(iMAP.tile
Tile
p457
(dp458
g4
I23
sg5
I5
sg6
I0
sg7
I71
sba(iMAP.tile
Tile
p459
(dp460
g4
I24
sg5
I5
sg6
I0
sg7
I71
sba(iMAP.tile
Tile
p461
(dp462
g4
I25
sg5
I5
sg6
I0
sg7
I71
sba(iMAP.tile
Tile
p463
(dp464
g4
I26
sg5
I5
sg6
I0
sg7
I71
sba(iMAP.tile
Tile
p465
(dp466
g4
I27
sg5
I5
sg6
I0
sg7
I71
sba(iMAP.tile
Tile
p467
(dp468
g4
I28
sg5
I5
sg6
I0
sg7
I71
sba(iMAP.tile
Tile
p469
(dp470
g4
I29
sg5
I5
sg6
I0
sg7
I71
sba(iMAP.tile
Tile
p471
(dp472
g4
I30
sg5
I5
sg6
I0
sg7
I71
sba(iMAP.tile
Tile
p473
(dp474
g4
I31
sg5
I5
sg6
I0
sg7
I71
sba(iMAP.tile
Tile
p475
(dp476
g4
I32
sg5
I5
sg6
I0
sg7
I71
sba(iMAP.tile
Tile
p477
(dp478
g4
I33
sg5
I5
sg6
I0
sg7
I71
sba(iMAP.tile
Tile
p479
(dp480
g4
I34
sg5
I5
sg6
I0
sg7
I71
sba(iMAP.tile
Tile
p481
(dp482
g4
I35
sg5
I5
sg6
I0
sg7
I71
sba(iMAP.tile
Tile
p483
(dp484
g4
I36
sg5
I5
sg6
I0
sg7
I71
sba(iMAP.tile
Tile
p485
(dp486
g4
I37
sg5
I5
sg6
I0
sg7
I71
sba(iMAP.tile
Tile
p487
(dp488
g4
I38
sg5
I5
sg6
I0
sg7
I71
sba(iMAP.tile
Tile
p489
(dp490
g4
I39
sg5
I5
sg6
I0
sg7
I71
sbaa(lp491
(iMAP.tile
Tile
p492
(dp493
g4
I0
sg5
I6
sg6
I0
sg7
I71
sba(iMAP.tile
Tile
p494
(dp495
g4
I1
sg5
I6
sg6
I0
sg7
I71
sba(iMAP.tile
Tile
p496
(dp497
g4
I2
sg5
I6
sg6
I0
sg7
I71
sba(iMAP.tile
Tile
p498
(dp499
g4
I3
sg5
I6
sg6
I0
sg7
I71
sba(iMAP.tile
Tile
p500
(dp501
g4
I4
sg5
I6
sg6
I0
sg7
I71
sba(iMAP.tile
Tile
p502
(dp503
g4
I5
sg5
I6
sg6
I0
sg7
I71
sba(iMAP.tile
Tile
p504
(dp505
g4
I6
sg5
I6
sg6
I0
sg7
I71
sba(iMAP.tile
Tile
p506
(dp507
g4
I7
sg5
I6
sg6
I0
sg7
I71
sba(iMAP.tile
Tile
p508
(dp509
g4
I8
sg5
I6
sg6
I0
sg7
I71
sba(iMAP.tile
Tile
p510
(dp511
g4
I9
sg5
I6
sg6
I0
sg7
I71
sba(iMAP.tile
Tile
p512
(dp513
g4
I10
sg5
I6
sg6
I0
sg7
I71
sba(iMAP.tile
Tile
p514
(dp515
g4
I11
sg5
I6
sg6
I0
sg7
I71
sba(iMAP.tile
Tile
p516
(dp517
g4
I12
sg5
I6
sg6
I0
sg7
I71
sba(iMAP.tile
Tile
p518
(dp519
g4
I13
sg5
I6
sg6
I0
sg7
I71
sba(iMAP.tile
Tile
p520
(dp521
g4
I14
sg5
I6
sg6
I0
sg7
I71
sba(iMAP.tile
Tile
p522
(dp523
g4
I15
sg5
I6
sg6
I0
sg7
I71
sba(iMAP.tile
Tile
p524
(dp525
g4
I16
sg5
I6
sg6
I0
sg7
I71
sba(iMAP.tile
Tile
p526
(dp527
g4
I17
sg5
I6
sg6
I0
sg7
I71
sba(iMAP.tile
Tile
p528
(dp529
g4
I18
sg5
I6
sg6
I0
sg7
I71
sba(iMAP.tile
Tile
p530
(dp531
g4
I19
sg5
I6
sg6
I0
sg7
I71
sba(iMAP.tile
Tile
p532
(dp533
g4
I20
sg5
I6
sg6
I0
sg7
I71
sba(iMAP.tile
Tile
p534
(dp535
g4
I21
sg5
I6
sg6
I0
sg7
I71
sba(iMAP.tile
Tile
p536
(dp537
g4
I22
sg5
I6
sg6
I0
sg7
I71
sba(iMAP.tile
Tile
p538
(dp539
g4
I23
sg5
I6
sg6
I0
sg7
I71
sba(iMAP.tile
Tile
p540
(dp541
g4
I24
sg5
I6
sg6
I0
sg7
I71
sba(iMAP.tile
Tile
p542
(dp543
g4
I25
sg5
I6
sg6
I0
sg7
I71
sba(iMAP.tile
Tile
p544
(dp545
g4
I26
sg5
I6
sg6
I0
sg7
I71
sba(iMAP.tile
Tile
p546
(dp547
g4
I27
sg5
I6
sg6
I0
sg7
I71
sba(iMAP.tile
Tile
p548
(dp549
g4
I28
sg5
I6
sg6
I0
sg7
I71
sba(iMAP.tile
Tile
p550
(dp551
g4
I29
sg5
I6
sg6
I0
sg7
I71
sba(iMAP.tile
Tile
p552
(dp553
g4
I30
sg5
I6
sg6
I0
sg7
I71
sba(iMAP.tile
Tile
p554
(dp555
g4
I31
sg5
I6
sg6
I0
sg7
I71
sba(iMAP.tile
Tile
p556
(dp557
g4
I32
sg5
I6
sg6
I0
sg7
I71
sba(iMAP.tile
Tile
p558
(dp559
g4
I33
sg5
I6
sg6
I0
sg7
I71
sba(iMAP.tile
Tile
p560
(dp561
g4
I34
sg5
I6
sg6
I0
sg7
I71
sba(iMAP.tile
Tile
p562
(dp563
g4
I35
sg5
I6
sg6
I0
sg7
I71
sba(iMAP.tile
Tile
p564
(dp565
g4
I36
sg5
I6
sg6
I0
sg7
I71
sba(iMAP.tile
Tile
p566
(dp567
g4
I37
sg5
I6
sg6
I0
sg7
I71
sba(iMAP.tile
Tile
p568
(dp569
g4
I38
sg5
I6
sg6
I0
sg7
I71
sba(iMAP.tile
Tile
p570
(dp571
g4
I39
sg5
I6
sg6
I0
sg7
I71
sbaa(lp572
(iMAP.tile
Tile
p573
(dp574
g4
I0
sg5
I7
sg6
I0
sg7
I71
sba(iMAP.tile
Tile
p575
(dp576
g4
I1
sg5
I7
sg6
I0
sg7
I71
sba(iMAP.tile
Tile
p577
(dp578
g4
I2
sg5
I7
sg6
I0
sg7
I71
sba(iMAP.tile
Tile
p579
(dp580
g4
I3
sg5
I7
sg6
I0
sg7
I71
sba(iMAP.tile
Tile
p581
(dp582
g4
I4
sg5
I7
sg6
I0
sg7
I71
sba(iMAP.tile
Tile
p583
(dp584
g4
I5
sg5
I7
sg6
I0
sg7
I71
sba(iMAP.tile
Tile
p585
(dp586
g4
I6
sg5
I7
sg6
I0
sg7
I71
sba(iMAP.tile
Tile
p587
(dp588
g4
I7
sg5
I7
sg6
I0
sg7
I71
sba(iMAP.tile
Tile
p589
(dp590
g4
I8
sg5
I7
sg6
I0
sg7
I71
sba(iMAP.tile
Tile
p591
(dp592
g4
I9
sg5
I7
sg6
I0
sg7
I71
sba(iMAP.tile
Tile
p593
(dp594
g4
I10
sg5
I7
sg6
I0
sg7
I71
sba(iMAP.tile
Tile
p595
(dp596
g4
I11
sg5
I7
sg6
I0
sg7
I71
sba(iMAP.tile
Tile
p597
(dp598
g4
I12
sg5
I7
sg6
I0
sg7
I40
sba(iMAP.tile
Tile
p599
(dp600
g4
I13
sg5
I7
sg6
I0
sg7
I31
sba(iMAP.tile
Tile
p601
(dp602
g4
I14
sg5
I7
sg6
I0
sg7
I31
sba(iMAP.tile
Tile
p603
(dp604
g4
I15
sg5
I7
sg6
I0
sg7
I31
sba(iMAP.tile
Tile
p605
(dp606
g4
I16
sg5
I7
sg6
I0
sg7
I31
sba(iMAP.tile
Tile
p607
(dp608
g4
I17
sg5
I7
sg6
I0
sg7
I31
sba(iMAP.tile
Tile
p609
(dp610
g4
I18
sg5
I7
sg6
I0
sg7
I31
sba(iMAP.tile
Tile
p611
(dp612
g4
I19
sg5
I7
sg6
I0
sg7
I31
sba(iMAP.tile
Tile
p613
(dp614
g4
I20
sg5
I7
sg6
I0
sg7
I31
sba(iMAP.tile
Tile
p615
(dp616
g4
I21
sg5
I7
sg6
I0
sg7
I31
sba(iMAP.tile
Tile
p617
(dp618
g4
I22
sg5
I7
sg6
I0
sg7
I31
sba(iMAP.tile
Tile
p619
(dp620
g4
I23
sg5
I7
sg6
I0
sg7
I31
sba(iMAP.tile
Tile
p621
(dp622
g4
I24
sg5
I7
sg6
I0
sg7
I31
sba(iMAP.tile
Tile
p623
(dp624
g4
I25
sg5
I7
sg6
I0
sg7
I31
sba(iMAP.tile
Tile
p625
(dp626
g4
I26
sg5
I7
sg6
I0
sg7
I51
sba(iMAP.tile
Tile
p627
(dp628
g4
I27
sg5
I7
sg6
I0
sg7
I71
sba(iMAP.tile
Tile
p629
(dp630
g4
I28
sg5
I7
sg6
I0
sg7
I71
sba(iMAP.tile
Tile
p631
(dp632
g4
I29
sg5
I7
sg6
I0
sg7
I71
sba(iMAP.tile
Tile
p633
(dp634
g4
I30
sg5
I7
sg6
I0
sg7
I71
sba(iMAP.tile
Tile
p635
(dp636
g4
I31
sg5
I7
sg6
I0
sg7
I71
sba(iMAP.tile
Tile
p637
(dp638
g4
I32
sg5
I7
sg6
I0
sg7
I71
sba(iMAP.tile
Tile
p639
(dp640
g4
I33
sg5
I7
sg6
I0
sg7
I71
sba(iMAP.tile
Tile
p641
(dp642
g4
I34
sg5
I7
sg6
I0
sg7
I71
sba(iMAP.tile
Tile
p643
(dp644
g4
I35
sg5
I7
sg6
I0
sg7
I71
sba(iMAP.tile
Tile
p645
(dp646
g4
I36
sg5
I7
sg6
I0
sg7
I71
sba(iMAP.tile
Tile
p647
(dp648
g4
I37
sg5
I7
sg6
I0
sg7
I71
sba(iMAP.tile
Tile
p649
(dp650
g4
I38
sg5
I7
sg6
I0
sg7
I71
sba(iMAP.tile
Tile
p651
(dp652
g4
I39
sg5
I7
sg6
I0
sg7
I71
sbaa(lp653
(iMAP.tile
Tile
p654
(dp655
g4
I0
sg5
I8
sg6
I0
sg7
I71
sba(iMAP.tile
Tile
p656
(dp657
g4
I1
sg5
I8
sg6
I0
sg7
I71
sba(iMAP.tile
Tile
p658
(dp659
g4
I2
sg5
I8
sg6
I0
sg7
I71
sba(iMAP.tile
Tile
p660
(dp661
g4
I3
sg5
I8
sg6
I0
sg7
I71
sba(iMAP.tile
Tile
p662
(dp663
g4
I4
sg5
I8
sg6
I0
sg7
I71
sba(iMAP.tile
Tile
p664
(dp665
g4
I5
sg5
I8
sg6
I0
sg7
I71
sba(iMAP.tile
Tile
p666
(dp667
g4
I6
sg5
I8
sg6
I0
sg7
I71
sba(iMAP.tile
Tile
p668
(dp669
g4
I7
sg5
I8
sg6
I0
sg7
I71
sba(iMAP.tile
Tile
p670
(dp671
g4
I8
sg5
I8
sg6
I0
sg7
I71
sba(iMAP.tile
Tile
p672
(dp673
g4
I9
sg5
I8
sg6
I0
sg7
I71
sba(iMAP.tile
Tile
p674
(dp675
g4
I10
sg5
I8
sg6
I0
sg7
I71
sba(iMAP.tile
Tile
p676
(dp677
g4
I11
sg5
I8
sg6
I0
sg7
I40
sba(iMAP.tile
Tile
p678
(dp679
g4
I12
sg5
I8
sg6
I0
sg7
I75
sba(iMAP.tile
Tile
p680
(dp681
g4
I13
sg5
I8
sg6
I0
sg7
I5
sba(iMAP.tile
Tile
p682
(dp683
g4
I14
sg5
I8
sg6
I0
sg7
I5
sba(iMAP.tile
Tile
p684
(dp685
g4
I15
sg5
I8
sg6
I0
sg7
I5
sba(iMAP.tile
Tile
p686
(dp687
g4
I16
sg5
I8
sg6
I0
sg7
I30
sba(iMAP.tile
Tile
p688
(dp689
g4
I17
sg5
I8
sg6
I0
sg7
I5
sba(iMAP.tile
Tile
p690
(dp691
g4
I18
sg5
I8
sg6
I0
sg7
I30
sba(iMAP.tile
Tile
p692
(dp693
g4
I19
sg5
I8
sg6
I0
sg7
I5
sba(iMAP.tile
Tile
p694
(dp695
g4
I20
sg5
I8
sg6
I0
sg7
I5
sba(iMAP.tile
Tile
p696
(dp697
g4
I21
sg5
I8
sg6
I0
sg7
I5
sba(iMAP.tile
Tile
p698
(dp699
g4
I22
sg5
I8
sg6
I0
sg7
I30
sba(iMAP.tile
Tile
p700
(dp701
g4
I23
sg5
I8
sg6
I0
sg7
I5
sba(iMAP.tile
Tile
p702
(dp703
g4
I24
sg5
I8
sg6
I0
sg7
I5
sba(iMAP.tile
Tile
p704
(dp705
g4
I25
sg5
I8
sg6
I0
sg7
I5
sba(iMAP.tile
Tile
p706
(dp707
g4
I26
sg5
I8
sg6
I0
sg7
I27
sba(iMAP.tile
Tile
p708
(dp709
g4
I27
sg5
I8
sg6
I0
sg7
I51
sba(iMAP.tile
Tile
p710
(dp711
g4
I28
sg5
I8
sg6
I0
sg7
I71
sba(iMAP.tile
Tile
p712
(dp713
g4
I29
sg5
I8
sg6
I0
sg7
I71
sba(iMAP.tile
Tile
p714
(dp715
g4
I30
sg5
I8
sg6
I0
sg7
I71
sba(iMAP.tile
Tile
p716
(dp717
g4
I31
sg5
I8
sg6
I0
sg7
I71
sba(iMAP.tile
Tile
p718
(dp719
g4
I32
sg5
I8
sg6
I0
sg7
I71
sba(iMAP.tile
Tile
p720
(dp721
g4
I33
sg5
I8
sg6
I0
sg7
I71
sba(iMAP.tile
Tile
p722
(dp723
g4
I34
sg5
I8
sg6
I0
sg7
I71
sba(iMAP.tile
Tile
p724
(dp725
g4
I35
sg5
I8
sg6
I0
sg7
I71
sba(iMAP.tile
Tile
p726
(dp727
g4
I36
sg5
I8
sg6
I0
sg7
I71
sba(iMAP.tile
Tile
p728
(dp729
g4
I37
sg5
I8
sg6
I0
sg7
I71
sba(iMAP.tile
Tile
p730
(dp731
g4
I38
sg5
I8
sg6
I0
sg7
I71
sba(iMAP.tile
Tile
p732
(dp733
g4
I39
sg5
I8
sg6
I0
sg7
I71
sbaa(lp734
(iMAP.tile
Tile
p735
(dp736
g4
I0
sg5
I9
sg6
I0
sg7
I71
sba(iMAP.tile
Tile
p737
(dp738
g4
I1
sg5
I9
sg6
I0
sg7
I71
sba(iMAP.tile
Tile
p739
(dp740
g4
I2
sg5
I9
sg6
I0
sg7
I71
sba(iMAP.tile
Tile
p741
(dp742
g4
I3
sg5
I9
sg6
I0
sg7
I71
sba(iMAP.tile
Tile
p743
(dp744
g4
I4
sg5
I9
sg6
I0
sg7
I71
sba(iMAP.tile
Tile
p745
(dp746
g4
I5
sg5
I9
sg6
I0
sg7
I71
sba(iMAP.tile
Tile
p747
(dp748
g4
I6
sg5
I9
sg6
I0
sg7
I71
sba(iMAP.tile
Tile
p749
(dp750
g4
I7
sg5
I9
sg6
I0
sg7
I71
sba(iMAP.tile
Tile
p751
(dp752
g4
I8
sg5
I9
sg6
I0
sg7
I71
sba(iMAP.tile
Tile
p753
(dp754
g4
I9
sg5
I9
sg6
I0
sg7
I71
sba(iMAP.tile
Tile
p755
(dp756
g4
I10
sg5
I9
sg6
I0
sg7
I40
sba(iMAP.tile
Tile
p757
(dp758
g4
I11
sg5
I9
sg6
I0
sg7
I75
sba(iMAP.tile
Tile
p759
(dp760
g4
I12
sg5
I9
sg6
I0
sg7
I5
sba(iMAP.tile
Tile
p761
(dp762
g4
I13
sg5
I9
sg6
I0
sg7
I5
sba(iMAP.tile
Tile
p763
(dp764
g4
I14
sg5
I9
sg6
I0
sg7
I5
sba(iMAP.tile
Tile
p765
(dp766
g4
I15
sg5
I9
sg6
I0
sg7
I5
sba(iMAP.tile
Tile
p767
(dp768
g4
I16
sg5
I9
sg6
I0
sg7
I30
sba(iMAP.tile
Tile
p769
(dp770
g4
I17
sg5
I9
sg6
I0
sg7
I5
sba(iMAP.tile
Tile
p771
(dp772
g4
I18
sg5
I9
sg6
I0
sg7
I30
sba(iMAP.tile
Tile
p773
(dp774
g4
I19
sg5
I9
sg6
I0
sg7
I5
sba(iMAP.tile
Tile
p775
(dp776
g4
I20
sg5
I9
sg6
I0
sg7
I5
sba(iMAP.tile
Tile
p777
(dp778
g4
I21
sg5
I9
sg6
I0
sg7
I5
sba(iMAP.tile
Tile
p779
(dp780
g4
I22
sg5
I9
sg6
I0
sg7
I30
sba(iMAP.tile
Tile
p781
(dp782
g4
I23
sg5
I9
sg6
I0
sg7
I5
sba(iMAP.tile
Tile
p783
(dp784
g4
I24
sg5
I9
sg6
I0
sg7
I110
sba(iMAP.tile
Tile
p785
(dp786
g4
I25
sg5
I9
sg6
I0
sg7
I5
sba(iMAP.tile
Tile
p787
(dp788
g4
I26
sg5
I9
sg6
I0
sg7
I30
sba(iMAP.tile
Tile
p789
(dp790
g4
I27
sg5
I9
sg6
I0
sg7
I27
sba(iMAP.tile
Tile
p791
(dp792
g4
I28
sg5
I9
sg6
I0
sg7
I51
sba(iMAP.tile
Tile
p793
(dp794
g4
I29
sg5
I9
sg6
I0
sg7
I71
sba(iMAP.tile
Tile
p795
(dp796
g4
I30
sg5
I9
sg6
I0
sg7
I71
sba(iMAP.tile
Tile
p797
(dp798
g4
I31
sg5
I9
sg6
I0
sg7
I71
sba(iMAP.tile
Tile
p799
(dp800
g4
I32
sg5
I9
sg6
I0
sg7
I71
sba(iMAP.tile
Tile
p801
(dp802
g4
I33
sg5
I9
sg6
I0
sg7
I71
sba(iMAP.tile
Tile
p803
(dp804
g4
I34
sg5
I9
sg6
I0
sg7
I71
sba(iMAP.tile
Tile
p805
(dp806
g4
I35
sg5
I9
sg6
I0
sg7
I71
sba(iMAP.tile
Tile
p807
(dp808
g4
I36
sg5
I9
sg6
I0
sg7
I71
sba(iMAP.tile
Tile
p809
(dp810
g4
I37
sg5
I9
sg6
I0
sg7
I71
sba(iMAP.tile
Tile
p811
(dp812
g4
I38
sg5
I9
sg6
I0
sg7
I71
sba(iMAP.tile
Tile
p813
(dp814
g4
I39
sg5
I9
sg6
I0
sg7
I71
sbaa(lp815
(iMAP.tile
Tile
p816
(dp817
g4
I0
sg5
I10
sg6
I0
sg7
I71
sba(iMAP.tile
Tile
p818
(dp819
g4
I1
sg5
I10
sg6
I0
sg7
I71
sba(iMAP.tile
Tile
p820
(dp821
g4
I2
sg5
I10
sg6
I0
sg7
I71
sba(iMAP.tile
Tile
p822
(dp823
g4
I3
sg5
I10
sg6
I0
sg7
I71
sba(iMAP.tile
Tile
p824
(dp825
g4
I4
sg5
I10
sg6
I0
sg7
I71
sba(iMAP.tile
Tile
p826
(dp827
g4
I5
sg5
I10
sg6
I0
sg7
I71
sba(iMAP.tile
Tile
p828
(dp829
g4
I6
sg5
I10
sg6
I0
sg7
I71
sba(iMAP.tile
Tile
p830
(dp831
g4
I7
sg5
I10
sg6
I0
sg7
I71
sba(iMAP.tile
Tile
p832
(dp833
g4
I8
sg5
I10
sg6
I0
sg7
I71
sba(iMAP.tile
Tile
p834
(dp835
g4
I9
sg5
I10
sg6
I0
sg7
I40
sba(iMAP.tile
Tile
p836
(dp837
g4
I10
sg5
I10
sg6
I0
sg7
I75
sba(iMAP.tile
Tile
p838
(dp839
g4
I11
sg5
I10
sg6
I0
sg7
I5
sba(iMAP.tile
Tile
p840
(dp841
g4
I12
sg5
I10
sg6
I0
sg7
I5
sba(iMAP.tile
Tile
p842
(dp843
g4
I13
sg5
I10
sg6
I0
sg7
I5
sba(iMAP.tile
Tile
p844
(dp845
g4
I14
sg5
I10
sg6
I0
sg7
I5
sba(iMAP.tile
Tile
p846
(dp847
g4
I15
sg5
I10
sg6
I0
sg7
I5
sba(iMAP.tile
Tile
p848
(dp849
g4
I16
sg5
I10
sg6
I0
sg7
I30
sba(iMAP.tile
Tile
p850
(dp851
g4
I17
sg5
I10
sg6
I0
sg7
I5
sba(iMAP.tile
Tile
p852
(dp853
g4
I18
sg5
I10
sg6
I0
sg7
I30
sba(iMAP.tile
Tile
p854
(dp855
g4
I19
sg5
I10
sg6
I0
sg7
I5
sba(iMAP.tile
Tile
p856
(dp857
g4
I20
sg5
I10
sg6
I0
sg7
I5
sba(iMAP.tile
Tile
p858
(dp859
g4
I21
sg5
I10
sg6
I0
sg7
I5
sba(iMAP.tile
Tile
p860
(dp861
g4
I22
sg5
I10
sg6
I0
sg7
I30
sba(iMAP.tile
Tile
p862
(dp863
g4
I23
sg5
I10
sg6
I0
sg7
I5
sba(iMAP.tile
Tile
p864
(dp865
g4
I24
sg5
I10
sg6
I0
sg7
I5
sba(iMAP.tile
Tile
p866
(dp867
g4
I25
sg5
I10
sg6
I0
sg7
I5
sba(iMAP.tile
Tile
p868
(dp869
g4
I26
sg5
I10
sg6
I0
sg7
I30
sba(iMAP.tile
Tile
p870
(dp871
g4
I27
sg5
I10
sg6
I0
sg7
I5
sba(iMAP.tile
Tile
p872
(dp873
g4
I28
sg5
I10
sg6
I0
sg7
I27
sba(iMAP.tile
Tile
p874
(dp875
g4
I29
sg5
I10
sg6
I0
sg7
I51
sba(iMAP.tile
Tile
p876
(dp877
g4
I30
sg5
I10
sg6
I0
sg7
I71
sba(iMAP.tile
Tile
p878
(dp879
g4
I31
sg5
I10
sg6
I0
sg7
I71
sba(iMAP.tile
Tile
p880
(dp881
g4
I32
sg5
I10
sg6
I0
sg7
I71
sba(iMAP.tile
Tile
p882
(dp883
g4
I33
sg5
I10
sg6
I0
sg7
I71
sba(iMAP.tile
Tile
p884
(dp885
g4
I34
sg5
I10
sg6
I0
sg7
I71
sba(iMAP.tile
Tile
p886
(dp887
g4
I35
sg5
I10
sg6
I0
sg7
I71
sba(iMAP.tile
Tile
p888
(dp889
g4
I36
sg5
I10
sg6
I0
sg7
I71
sba(iMAP.tile
Tile
p890
(dp891
g4
I37
sg5
I10
sg6
I0
sg7
I71
sba(iMAP.tile
Tile
p892
(dp893
g4
I38
sg5
I10
sg6
I0
sg7
I71
sba(iMAP.tile
Tile
p894
(dp895
g4
I39
sg5
I10
sg6
I0
sg7
I71
sbaa(lp896
(iMAP.tile
Tile
p897
(dp898
g4
I0
sg5
I11
sg6
I0
sg7
I71
sba(iMAP.tile
Tile
p899
(dp900
g4
I1
sg5
I11
sg6
I0
sg7
I71
sba(iMAP.tile
Tile
p901
(dp902
g4
I2
sg5
I11
sg6
I0
sg7
I71
sba(iMAP.tile
Tile
p903
(dp904
g4
I3
sg5
I11
sg6
I0
sg7
I71
sba(iMAP.tile
Tile
p905
(dp906
g4
I4
sg5
I11
sg6
I0
sg7
I71
sba(iMAP.tile
Tile
p907
(dp908
g4
I5
sg5
I11
sg6
I0
sg7
I71
sba(iMAP.tile
Tile
p909
(dp910
g4
I6
sg5
I11
sg6
I0
sg7
I71
sba(iMAP.tile
Tile
p911
(dp912
g4
I7
sg5
I11
sg6
I0
sg7
I71
sba(iMAP.tile
Tile
p913
(dp914
g4
I8
sg5
I11
sg6
I0
sg7
I40
sba(iMAP.tile
Tile
p915
(dp916
g4
I9
sg5
I11
sg6
I0
sg7
I75
sba(iMAP.tile
Tile
p917
(dp918
g4
I10
sg5
I11
sg6
I0
sg7
I5
sba(iMAP.tile
Tile
p919
(dp920
g4
I11
sg5
I11
sg6
I0
sg7
I5
sba(iMAP.tile
Tile
p921
(dp922
g4
I12
sg5
I11
sg6
I0
sg7
I5
sba(iMAP.tile
Tile
p923
(dp924
g4
I13
sg5
I11
sg6
I0
sg7
I5
sba(iMAP.tile
Tile
p925
(dp926
g4
I14
sg5
I11
sg6
I0
sg7
I5
sba(iMAP.tile
Tile
p927
(dp928
g4
I15
sg5
I11
sg6
I0
sg7
I5
sba(iMAP.tile
Tile
p929
(dp930
g4
I16
sg5
I11
sg6
I0
sg7
I30
sba(iMAP.tile
Tile
p931
(dp932
g4
I17
sg5
I11
sg6
I0
sg7
I5
sba(iMAP.tile
Tile
p933
(dp934
g4
I18
sg5
I11
sg6
I0
sg7
I30
sba(iMAP.tile
Tile
p935
(dp936
g4
I19
sg5
I11
sg6
I0
sg7
I31
sba(iMAP.tile
Tile
p937
(dp938
g4
I20
sg5
I11
sg6
I0
sg7
I81
sba(iMAP.tile
Tile
p939
(dp940
g4
I21
sg5
I11
sg6
I0
sg7
I31
sba(iMAP.tile
Tile
p941
(dp942
g4
I22
sg5
I11
sg6
I0
sg7
I27
sba(iMAP.tile
Tile
p943
(dp944
g4
I23
sg5
I11
sg6
I0
sg7
I31
sba(iMAP.tile
Tile
p945
(dp946
g4
I24
sg5
I11
sg6
I0
sg7
I81
sba(iMAP.tile
Tile
p947
(dp948
g4
I25
sg5
I11
sg6
I0
sg7
I31
sba(iMAP.tile
Tile
p949
(dp950
g4
I26
sg5
I11
sg6
I0
sg7
I30
sba(iMAP.tile
Tile
p951
(dp952
g4
I27
sg5
I11
sg6
I0
sg7
I5
sba(iMAP.tile
Tile
p953
(dp954
g4
I28
sg5
I11
sg6
I0
sg7
I5
sba(iMAP.tile
Tile
p955
(dp956
g4
I29
sg5
I11
sg6
I0
sg7
I27
sba(iMAP.tile
Tile
p957
(dp958
g4
I30
sg5
I11
sg6
I0
sg7
I51
sba(iMAP.tile
Tile
p959
(dp960
g4
I31
sg5
I11
sg6
I0
sg7
I71
sba(iMAP.tile
Tile
p961
(dp962
g4
I32
sg5
I11
sg6
I0
sg7
I71
sba(iMAP.tile
Tile
p963
(dp964
g4
I33
sg5
I11
sg6
I0
sg7
I71
sba(iMAP.tile
Tile
p965
(dp966
g4
I34
sg5
I11
sg6
I0
sg7
I71
sba(iMAP.tile
Tile
p967
(dp968
g4
I35
sg5
I11
sg6
I0
sg7
I71
sba(iMAP.tile
Tile
p969
(dp970
g4
I36
sg5
I11
sg6
I0
sg7
I71
sba(iMAP.tile
Tile
p971
(dp972
g4
I37
sg5
I11
sg6
I0
sg7
I71
sba(iMAP.tile
Tile
p973
(dp974
g4
I38
sg5
I11
sg6
I0
sg7
I71
sba(iMAP.tile
Tile
p975
(dp976
g4
I39
sg5
I11
sg6
I0
sg7
I71
sbaa(lp977
(iMAP.tile
Tile
p978
(dp979
g4
I0
sg5
I12
sg6
I0
sg7
I71
sba(iMAP.tile
Tile
p980
(dp981
g4
I1
sg5
I12
sg6
I0
sg7
I71
sba(iMAP.tile
Tile
p982
(dp983
g4
I2
sg5
I12
sg6
I0
sg7
I71
sba(iMAP.tile
Tile
p984
(dp985
g4
I3
sg5
I12
sg6
I0
sg7
I71
sba(iMAP.tile
Tile
p986
(dp987
g4
I4
sg5
I12
sg6
I0
sg7
I71
sba(iMAP.tile
Tile
p988
(dp989
g4
I5
sg5
I12
sg6
I0
sg7
I71
sba(iMAP.tile
Tile
p990
(dp991
g4
I6
sg5
I12
sg6
I0
sg7
I71
sba(iMAP.tile
Tile
p992
(dp993
g4
I7
sg5
I12
sg6
I0
sg7
I71
sba(iMAP.tile
Tile
p994
(dp995
g4
I8
sg5
I12
sg6
I0
sg7
I39
sba(iMAP.tile
Tile
p996
(dp997
g4
I9
sg5
I12
sg6
I0
sg7
I5
sba(iMAP.tile
Tile
p998
(dp999
g4
I10
sg5
I12
sg6
I0
sg7
I5
sba(iMAP.tile
Tile
p1000
(dp1001
g4
I11
sg5
I12
sg6
I0
sg7
I5
sba(iMAP.tile
Tile
p1002
(dp1003
g4
I12
sg5
I12
sg6
I0
sg7
I5
sba(iMAP.tile
Tile
p1004
(dp1005
g4
I13
sg5
I12
sg6
I0
sg7
I5
sba(iMAP.tile
Tile
p1006
(dp1007
g4
I14
sg5
I12
sg6
I0
sg7
I5
sba(iMAP.tile
Tile
p1008
(dp1009
g4
I15
sg5
I12
sg6
I0
sg7
I5
sba(iMAP.tile
Tile
p1010
(dp1011
g4
I16
sg5
I12
sg6
I0
sg7
I30
sba(iMAP.tile
Tile
p1012
(dp1013
g4
I17
sg5
I12
sg6
I0
sg7
I5
sba(iMAP.tile
Tile
p1014
(dp1015
g4
I18
sg5
I12
sg6
I0
sg7
I38
sba(iMAP.tile
Tile
p1016
(dp1017
g4
I19
sg5
I12
sg6
I0
sg7
I5
sba(iMAP.tile
Tile
p1018
(dp1019
g4
I20
sg5
I12
sg6
I0
sg7
I5
sba(iMAP.tile
Tile
p1020
(dp1021
g4
I21
sg5
I12
sg6
I0
sg7
I5
sba(iMAP.tile
Tile
p1022
(dp1023
g4
I22
sg5
I12
sg6
I0
sg7
I5
sba(iMAP.tile
Tile
p1024
(dp1025
g4
I23
sg5
I12
sg6
I0
sg7
I5
sba(iMAP.tile
Tile
p1026
(dp1027
g4
I24
sg5
I12
sg6
I0
sg7
I5
sba(iMAP.tile
Tile
p1028
(dp1029
g4
I25
sg5
I12
sg6
I0
sg7
I5
sba(iMAP.tile
Tile
p1030
(dp1031
g4
I26
sg5
I12
sg6
I0
sg7
I38
sba(iMAP.tile
Tile
p1032
(dp1033
g4
I27
sg5
I12
sg6
I0
sg7
I5
sba(iMAP.tile
Tile
p1034
(dp1035
g4
I28
sg5
I12
sg6
I0
sg7
I5
sba(iMAP.tile
Tile
p1036
(dp1037
g4
I29
sg5
I12
sg6
I0
sg7
I5
sba(iMAP.tile
Tile
p1038
(dp1039
g4
I30
sg5
I12
sg6
I0
sg7
I39
sba(iMAP.tile
Tile
p1040
(dp1041
g4
I31
sg5
I12
sg6
I0
sg7
I71
sba(iMAP.tile
Tile
p1042
(dp1043
g4
I32
sg5
I12
sg6
I0
sg7
I71
sba(iMAP.tile
Tile
p1044
(dp1045
g4
I33
sg5
I12
sg6
I0
sg7
I71
sba(iMAP.tile
Tile
p1046
(dp1047
g4
I34
sg5
I12
sg6
I0
sg7
I71
sba(iMAP.tile
Tile
p1048
(dp1049
g4
I35
sg5
I12
sg6
I0
sg7
I71
sba(iMAP.tile
Tile
p1050
(dp1051
g4
I36
sg5
I12
sg6
I0
sg7
I71
sba(iMAP.tile
Tile
p1052
(dp1053
g4
I37
sg5
I12
sg6
I0
sg7
I71
sba(iMAP.tile
Tile
p1054
(dp1055
g4
I38
sg5
I12
sg6
I0
sg7
I71
sba(iMAP.tile
Tile
p1056
(dp1057
g4
I39
sg5
I12
sg6
I0
sg7
I71
sbaa(lp1058
(iMAP.tile
Tile
p1059
(dp1060
g4
I0
sg5
I13
sg6
I0
sg7
I71
sba(iMAP.tile
Tile
p1061
(dp1062
g4
I1
sg5
I13
sg6
I0
sg7
I71
sba(iMAP.tile
Tile
p1063
(dp1064
g4
I2
sg5
I13
sg6
I0
sg7
I71
sba(iMAP.tile
Tile
p1065
(dp1066
g4
I3
sg5
I13
sg6
I0
sg7
I71
sba(iMAP.tile
Tile
p1067
(dp1068
g4
I4
sg5
I13
sg6
I0
sg7
I71
sba(iMAP.tile
Tile
p1069
(dp1070
g4
I5
sg5
I13
sg6
I0
sg7
I71
sba(iMAP.tile
Tile
p1071
(dp1072
g4
I6
sg5
I13
sg6
I0
sg7
I71
sba(iMAP.tile
Tile
p1073
(dp1074
g4
I7
sg5
I13
sg6
I0
sg7
I71
sba(iMAP.tile
Tile
p1075
(dp1076
g4
I8
sg5
I13
sg6
I0
sg7
I30
sba(iMAP.tile
Tile
p1077
(dp1078
g4
I9
sg5
I13
sg6
I0
sg7
I5
sba(iMAP.tile
Tile
p1079
(dp1080
g4
I10
sg5
I13
sg6
I0
sg7
I5
sba(iMAP.tile
Tile
p1081
(dp1082
g4
I11
sg5
I13
sg6
I0
sg7
I5
sba(iMAP.tile
Tile
p1083
(dp1084
g4
I12
sg5
I13
sg6
I0
sg7
I5
sba(iMAP.tile
Tile
p1085
(dp1086
g4
I13
sg5
I13
sg6
I0
sg7
I5
sba(iMAP.tile
Tile
p1087
(dp1088
g4
I14
sg5
I13
sg6
I0
sg7
I5
sba(iMAP.tile
Tile
p1089
(dp1090
g4
I15
sg5
I13
sg6
I0
sg7
I5
sba(iMAP.tile
Tile
p1091
(dp1092
g4
I16
sg5
I13
sg6
I0
sg7
I30
sba(iMAP.tile
Tile
p1093
(dp1094
g4
I17
sg5
I13
sg6
I0
sg7
I5
sba(iMAP.tile
Tile
p1095
(dp1096
g4
I18
sg5
I13
sg6
I0
sg7
I38
sba(iMAP.tile
Tile
p1097
(dp1098
g4
I19
sg5
I13
sg6
I0
sg7
I5
sba(iMAP.tile
Tile
p1099
(dp1100
g4
I20
sg5
I13
sg6
I0
sg7
I5
sba(iMAP.tile
Tile
p1101
(dp1102
g4
I21
sg5
I13
sg6
I0
sg7
I5
sba(iMAP.tile
Tile
p1103
(dp1104
g4
I22
sg5
I13
sg6
I0
sg7
I5
sba(iMAP.tile
Tile
p1105
(dp1106
g4
I23
sg5
I13
sg6
I0
sg7
I5
sba(iMAP.tile
Tile
p1107
(dp1108
g4
I24
sg5
I13
sg6
I0
sg7
I5
sba(iMAP.tile
Tile
p1109
(dp1110
g4
I25
sg5
I13
sg6
I0
sg7
I5
sba(iMAP.tile
Tile
p1111
(dp1112
g4
I26
sg5
I13
sg6
I0
sg7
I38
sba(iMAP.tile
Tile
p1113
(dp1114
g4
I27
sg5
I13
sg6
I0
sg7
I5
sba(iMAP.tile
Tile
p1115
(dp1116
g4
I28
sg5
I13
sg6
I0
sg7
I5
sba(iMAP.tile
Tile
p1117
(dp1118
g4
I29
sg5
I13
sg6
I0
sg7
I5
sba(iMAP.tile
Tile
p1119
(dp1120
g4
I30
sg5
I13
sg6
I0
sg7
I30
sba(iMAP.tile
Tile
p1121
(dp1122
g4
I31
sg5
I13
sg6
I0
sg7
I71
sba(iMAP.tile
Tile
p1123
(dp1124
g4
I32
sg5
I13
sg6
I0
sg7
I71
sba(iMAP.tile
Tile
p1125
(dp1126
g4
I33
sg5
I13
sg6
I0
sg7
I71
sba(iMAP.tile
Tile
p1127
(dp1128
g4
I34
sg5
I13
sg6
I0
sg7
I71
sba(iMAP.tile
Tile
p1129
(dp1130
g4
I35
sg5
I13
sg6
I0
sg7
I71
sba(iMAP.tile
Tile
p1131
(dp1132
g4
I36
sg5
I13
sg6
I0
sg7
I71
sba(iMAP.tile
Tile
p1133
(dp1134
g4
I37
sg5
I13
sg6
I0
sg7
I71
sba(iMAP.tile
Tile
p1135
(dp1136
g4
I38
sg5
I13
sg6
I0
sg7
I71
sba(iMAP.tile
Tile
p1137
(dp1138
g4
I39
sg5
I13
sg6
I0
sg7
I71
sbaa(lp1139
(iMAP.tile
Tile
p1140
(dp1141
g4
I0
sg5
I14
sg6
I0
sg7
I71
sba(iMAP.tile
Tile
p1142
(dp1143
g4
I1
sg5
I14
sg6
I0
sg7
I71
sba(iMAP.tile
Tile
p1144
(dp1145
g4
I2
sg5
I14
sg6
I0
sg7
I71
sba(iMAP.tile
Tile
p1146
(dp1147
g4
I3
sg5
I14
sg6
I0
sg7
I71
sba(iMAP.tile
Tile
p1148
(dp1149
g4
I4
sg5
I14
sg6
I0
sg7
I71
sba(iMAP.tile
Tile
p1150
(dp1151
g4
I5
sg5
I14
sg6
I0
sg7
I71
sba(iMAP.tile
Tile
p1152
(dp1153
g4
I6
sg5
I14
sg6
I0
sg7
I71
sba(iMAP.tile
Tile
p1154
(dp1155
g4
I7
sg5
I14
sg6
I0
sg7
I71
sba(iMAP.tile
Tile
p1156
(dp1157
g4
I8
sg5
I14
sg6
I0
sg7
I39
sba(iMAP.tile
Tile
p1158
(dp1159
g4
I9
sg5
I14
sg6
I0
sg7
I5
sba(iMAP.tile
Tile
p1160
(dp1161
g4
I10
sg5
I14
sg6
I0
sg7
I5
sba(iMAP.tile
Tile
p1162
(dp1163
g4
I11
sg5
I14
sg6
I0
sg7
I5
sba(iMAP.tile
Tile
p1164
(dp1165
g4
I12
sg5
I14
sg6
I0
sg7
I5
sba(iMAP.tile
Tile
p1166
(dp1167
g4
I13
sg5
I14
sg6
I0
sg7
I5
sba(iMAP.tile
Tile
p1168
(dp1169
g4
I14
sg5
I14
sg6
I0
sg7
I5
sba(iMAP.tile
Tile
p1170
(dp1171
g4
I15
sg5
I14
sg6
I0
sg7
I5
sba(iMAP.tile
Tile
p1172
(dp1173
g4
I16
sg5
I14
sg6
I0
sg7
I30
sba(iMAP.tile
Tile
p1174
(dp1175
g4
I17
sg5
I14
sg6
I0
sg7
I5
sba(iMAP.tile
Tile
p1176
(dp1177
g4
I18
sg5
I14
sg6
I0
sg7
I30
sba(iMAP.tile
Tile
p1178
(dp1179
g4
I19
sg5
I14
sg6
I0
sg7
I31
sba(iMAP.tile
Tile
p1180
(dp1181
g4
I20
sg5
I14
sg6
I0
sg7
I81
sba(iMAP.tile
Tile
p1182
(dp1183
g4
I21
sg5
I14
sg6
I0
sg7
I31
sba(iMAP.tile
Tile
p1184
(dp1185
g4
I22
sg5
I14
sg6
I0
sg7
I31
sba(iMAP.tile
Tile
p1186
(dp1187
g4
I23
sg5
I14
sg6
I0
sg7
I31
sba(iMAP.tile
Tile
p1188
(dp1189
g4
I24
sg5
I14
sg6
I0
sg7
I81
sba(iMAP.tile
Tile
p1190
(dp1191
g4
I25
sg5
I14
sg6
I0
sg7
I31
sba(iMAP.tile
Tile
p1192
(dp1193
g4
I26
sg5
I14
sg6
I0
sg7
I30
sba(iMAP.tile
Tile
p1194
(dp1195
g4
I27
sg5
I14
sg6
I0
sg7
I5
sba(iMAP.tile
Tile
p1196
(dp1197
g4
I28
sg5
I14
sg6
I0
sg7
I5
sba(iMAP.tile
Tile
p1198
(dp1199
g4
I29
sg5
I14
sg6
I0
sg7
I5
sba(iMAP.tile
Tile
p1200
(dp1201
g4
I30
sg5
I14
sg6
I0
sg7
I39
sba(iMAP.tile
Tile
p1202
(dp1203
g4
I31
sg5
I14
sg6
I0
sg7
I71
sba(iMAP.tile
Tile
p1204
(dp1205
g4
I32
sg5
I14
sg6
I0
sg7
I71
sba(iMAP.tile
Tile
p1206
(dp1207
g4
I33
sg5
I14
sg6
I0
sg7
I71
sba(iMAP.tile
Tile
p1208
(dp1209
g4
I34
sg5
I14
sg6
I0
sg7
I71
sba(iMAP.tile
Tile
p1210
(dp1211
g4
I35
sg5
I14
sg6
I0
sg7
I71
sba(iMAP.tile
Tile
p1212
(dp1213
g4
I36
sg5
I14
sg6
I0
sg7
I71
sba(iMAP.tile
Tile
p1214
(dp1215
g4
I37
sg5
I14
sg6
I0
sg7
I71
sba(iMAP.tile
Tile
p1216
(dp1217
g4
I38
sg5
I14
sg6
I0
sg7
I71
sba(iMAP.tile
Tile
p1218
(dp1219
g4
I39
sg5
I14
sg6
I0
sg7
I71
sbaa(lp1220
(iMAP.tile
Tile
p1221
(dp1222
g4
I0
sg5
I15
sg6
I0
sg7
I71
sba(iMAP.tile
Tile
p1223
(dp1224
g4
I1
sg5
I15
sg6
I0
sg7
I71
sba(iMAP.tile
Tile
p1225
(dp1226
g4
I2
sg5
I15
sg6
I0
sg7
I71
sba(iMAP.tile
Tile
p1227
(dp1228
g4
I3
sg5
I15
sg6
I0
sg7
I71
sba(iMAP.tile
Tile
p1229
(dp1230
g4
I4
sg5
I15
sg6
I0
sg7
I71
sba(iMAP.tile
Tile
p1231
(dp1232
g4
I5
sg5
I15
sg6
I0
sg7
I71
sba(iMAP.tile
Tile
p1233
(dp1234
g4
I6
sg5
I15
sg6
I0
sg7
I71
sba(iMAP.tile
Tile
p1235
(dp1236
g4
I7
sg5
I15
sg6
I0
sg7
I71
sba(iMAP.tile
Tile
p1237
(dp1238
g4
I8
sg5
I15
sg6
I0
sg7
I27
sba(iMAP.tile
Tile
p1239
(dp1240
g4
I9
sg5
I15
sg6
I0
sg7
I51
sba(iMAP.tile
Tile
p1241
(dp1242
g4
I10
sg5
I15
sg6
I0
sg7
I5
sba(iMAP.tile
Tile
p1243
(dp1244
g4
I11
sg5
I15
sg6
I0
sg7
I5
sba(iMAP.tile
Tile
p1245
(dp1246
g4
I12
sg5
I15
sg6
I0
sg7
I5
sba(iMAP.tile
Tile
p1247
(dp1248
g4
I13
sg5
I15
sg6
I0
sg7
I5
sba(iMAP.tile
Tile
p1249
(dp1250
g4
I14
sg5
I15
sg6
I0
sg7
I5
sba(iMAP.tile
Tile
p1251
(dp1252
g4
I15
sg5
I15
sg6
I0
sg7
I5
sba(iMAP.tile
Tile
p1253
(dp1254
g4
I16
sg5
I15
sg6
I0
sg7
I30
sba(iMAP.tile
Tile
p1255
(dp1256
g4
I17
sg5
I15
sg6
I0
sg7
I5
sba(iMAP.tile
Tile
p1257
(dp1258
g4
I18
sg5
I15
sg6
I0
sg7
I30
sba(iMAP.tile
Tile
p1259
(dp1260
g4
I19
sg5
I15
sg6
I0
sg7
I5
sba(iMAP.tile
Tile
p1261
(dp1262
g4
I20
sg5
I15
sg6
I0
sg7
I5
sba(iMAP.tile
Tile
p1263
(dp1264
g4
I21
sg5
I15
sg6
I0
sg7
I5
sba(iMAP.tile
Tile
p1265
(dp1266
g4
I22
sg5
I15
sg6
I0
sg7
I30
sba(iMAP.tile
Tile
p1267
(dp1268
g4
I23
sg5
I15
sg6
I0
sg7
I5
sba(iMAP.tile
Tile
p1269
(dp1270
g4
I24
sg5
I15
sg6
I0
sg7
I5
sba(iMAP.tile
Tile
p1271
(dp1272
g4
I25
sg5
I15
sg6
I0
sg7
I5
sba(iMAP.tile
Tile
p1273
(dp1274
g4
I26
sg5
I15
sg6
I0
sg7
I30
sba(iMAP.tile
Tile
p1275
(dp1276
g4
I27
sg5
I15
sg6
I0
sg7
I5
sba(iMAP.tile
Tile
p1277
(dp1278
g4
I28
sg5
I15
sg6
I0
sg7
I5
sba(iMAP.tile
Tile
p1279
(dp1280
g4
I29
sg5
I15
sg6
I0
sg7
I40
sba(iMAP.tile
Tile
p1281
(dp1282
g4
I30
sg5
I15
sg6
I0
sg7
I75
sba(iMAP.tile
Tile
p1283
(dp1284
g4
I31
sg5
I15
sg6
I0
sg7
I71
sba(iMAP.tile
Tile
p1285
(dp1286
g4
I32
sg5
I15
sg6
I0
sg7
I71
sba(iMAP.tile
Tile
p1287
(dp1288
g4
I33
sg5
I15
sg6
I0
sg7
I71
sba(iMAP.tile
Tile
p1289
(dp1290
g4
I34
sg5
I15
sg6
I0
sg7
I71
sba(iMAP.tile
Tile
p1291
(dp1292
g4
I35
sg5
I15
sg6
I0
sg7
I71
sba(iMAP.tile
Tile
p1293
(dp1294
g4
I36
sg5
I15
sg6
I0
sg7
I71
sba(iMAP.tile
Tile
p1295
(dp1296
g4
I37
sg5
I15
sg6
I0
sg7
I71
sba(iMAP.tile
Tile
p1297
(dp1298
g4
I38
sg5
I15
sg6
I0
sg7
I71
sba(iMAP.tile
Tile
p1299
(dp1300
g4
I39
sg5
I15
sg6
I0
sg7
I71
sbaa(lp1301
(iMAP.tile
Tile
p1302
(dp1303
g4
I0
sg5
I16
sg6
I0
sg7
I71
sba(iMAP.tile
Tile
p1304
(dp1305
g4
I1
sg5
I16
sg6
I0
sg7
I71
sba(iMAP.tile
Tile
p1306
(dp1307
g4
I2
sg5
I16
sg6
I0
sg7
I71
sba(iMAP.tile
Tile
p1308
(dp1309
g4
I3
sg5
I16
sg6
I0
sg7
I71
sba(iMAP.tile
Tile
p1310
(dp1311
g4
I4
sg5
I16
sg6
I0
sg7
I71
sba(iMAP.tile
Tile
p1312
(dp1313
g4
I5
sg5
I16
sg6
I0
sg7
I71
sba(iMAP.tile
Tile
p1314
(dp1315
g4
I6
sg5
I16
sg6
I0
sg7
I71
sba(iMAP.tile
Tile
p1316
(dp1317
g4
I7
sg5
I16
sg6
I0
sg7
I71
sba(iMAP.tile
Tile
p1318
(dp1319
g4
I8
sg5
I16
sg6
I0
sg7
I30
sba(iMAP.tile
Tile
p1320
(dp1321
g4
I9
sg5
I16
sg6
I0
sg7
I27
sba(iMAP.tile
Tile
p1322
(dp1323
g4
I10
sg5
I16
sg6
I0
sg7
I51
sba(iMAP.tile
Tile
p1324
(dp1325
g4
I11
sg5
I16
sg6
I0
sg7
I5
sba(iMAP.tile
Tile
p1326
(dp1327
g4
I12
sg5
I16
sg6
I0
sg7
I5
sba(iMAP.tile
Tile
p1328
(dp1329
g4
I13
sg5
I16
sg6
I0
sg7
I5
sba(iMAP.tile
Tile
p1330
(dp1331
g4
I14
sg5
I16
sg6
I0
sg7
I5
sba(iMAP.tile
Tile
p1332
(dp1333
g4
I15
sg5
I16
sg6
I0
sg7
I5
sba(iMAP.tile
Tile
p1334
(dp1335
g4
I16
sg5
I16
sg6
I0
sg7
I30
sba(iMAP.tile
Tile
p1336
(dp1337
g4
I17
sg5
I16
sg6
I0
sg7
I5
sba(iMAP.tile
Tile
p1338
(dp1339
g4
I18
sg5
I16
sg6
I0
sg7
I30
sba(iMAP.tile
Tile
p1340
(dp1341
g4
I19
sg5
I16
sg6
I0
sg7
I5
sba(iMAP.tile
Tile
p1342
(dp1343
g4
I20
sg5
I16
sg6
I0
sg7
I5
sba(iMAP.tile
Tile
p1344
(dp1345
g4
I21
sg5
I16
sg6
I0
sg7
I5
sba(iMAP.tile
Tile
p1346
(dp1347
g4
I22
sg5
I16
sg6
I0
sg7
I30
sba(iMAP.tile
Tile
p1348
(dp1349
g4
I23
sg5
I16
sg6
I0
sg7
I5
sba(iMAP.tile
Tile
p1350
(dp1351
g4
I24
sg5
I16
sg6
I0
sg7
I5
sba(iMAP.tile
Tile
p1352
(dp1353
g4
I25
sg5
I16
sg6
I0
sg7
I5
sba(iMAP.tile
Tile
p1354
(dp1355
g4
I26
sg5
I16
sg6
I0
sg7
I30
sba(iMAP.tile
Tile
p1356
(dp1357
g4
I27
sg5
I16
sg6
I0
sg7
I5
sba(iMAP.tile
Tile
p1358
(dp1359
g4
I28
sg5
I16
sg6
I0
sg7
I40
sba(iMAP.tile
Tile
p1360
(dp1361
g4
I29
sg5
I16
sg6
I0
sg7
I75
sba(iMAP.tile
Tile
p1362
(dp1363
g4
I30
sg5
I16
sg6
I0
sg7
I5
sba(iMAP.tile
Tile
p1364
(dp1365
g4
I31
sg5
I16
sg6
I0
sg7
I71
sba(iMAP.tile
Tile
p1366
(dp1367
g4
I32
sg5
I16
sg6
I0
sg7
I71
sba(iMAP.tile
Tile
p1368
(dp1369
g4
I33
sg5
I16
sg6
I0
sg7
I71
sba(iMAP.tile
Tile
p1370
(dp1371
g4
I34
sg5
I16
sg6
I0
sg7
I71
sba(iMAP.tile
Tile
p1372
(dp1373
g4
I35
sg5
I16
sg6
I0
sg7
I71
sba(iMAP.tile
Tile
p1374
(dp1375
g4
I36
sg5
I16
sg6
I0
sg7
I71
sba(iMAP.tile
Tile
p1376
(dp1377
g4
I37
sg5
I16
sg6
I0
sg7
I71
sba(iMAP.tile
Tile
p1378
(dp1379
g4
I38
sg5
I16
sg6
I0
sg7
I71
sba(iMAP.tile
Tile
p1380
(dp1381
g4
I39
sg5
I16
sg6
I0
sg7
I71
sbaa(lp1382
(iMAP.tile
Tile
p1383
(dp1384
g4
I0
sg5
I17
sg6
I0
sg7
I71
sba(iMAP.tile
Tile
p1385
(dp1386
g4
I1
sg5
I17
sg6
I0
sg7
I71
sba(iMAP.tile
Tile
p1387
(dp1388
g4
I2
sg5
I17
sg6
I0
sg7
I71
sba(iMAP.tile
Tile
p1389
(dp1390
g4
I3
sg5
I17
sg6
I0
sg7
I71
sba(iMAP.tile
Tile
p1391
(dp1392
g4
I4
sg5
I17
sg6
I0
sg7
I71
sba(iMAP.tile
Tile
p1393
(dp1394
g4
I5
sg5
I17
sg6
I0
sg7
I71
sba(iMAP.tile
Tile
p1395
(dp1396
g4
I6
sg5
I17
sg6
I0
sg7
I71
sba(iMAP.tile
Tile
p1397
(dp1398
g4
I7
sg5
I17
sg6
I0
sg7
I71
sba(iMAP.tile
Tile
p1399
(dp1400
g4
I8
sg5
I17
sg6
I0
sg7
I30
sba(iMAP.tile
Tile
p1401
(dp1402
g4
I9
sg5
I17
sg6
I0
sg7
I5
sba(iMAP.tile
Tile
p1403
(dp1404
g4
I10
sg5
I17
sg6
I0
sg7
I27
sba(iMAP.tile
Tile
p1405
(dp1406
g4
I11
sg5
I17
sg6
I0
sg7
I51
sba(iMAP.tile
Tile
p1407
(dp1408
g4
I12
sg5
I17
sg6
I0
sg7
I5
sba(iMAP.tile
Tile
p1409
(dp1410
g4
I13
sg5
I17
sg6
I0
sg7
I5
sba(iMAP.tile
Tile
p1411
(dp1412
g4
I14
sg5
I17
sg6
I0
sg7
I5
sba(iMAP.tile
Tile
p1413
(dp1414
g4
I15
sg5
I17
sg6
I0
sg7
I5
sba(iMAP.tile
Tile
p1415
(dp1416
g4
I16
sg5
I17
sg6
I0
sg7
I30
sba(iMAP.tile
Tile
p1417
(dp1418
g4
I17
sg5
I17
sg6
I0
sg7
I5
sba(iMAP.tile
Tile
p1419
(dp1420
g4
I18
sg5
I17
sg6
I0
sg7
I30
sba(iMAP.tile
Tile
p1421
(dp1422
g4
I19
sg5
I17
sg6
I0
sg7
I5
sba(iMAP.tile
Tile
p1423
(dp1424
g4
I20
sg5
I17
sg6
I0
sg7
I5
sba(iMAP.tile
Tile
p1425
(dp1426
g4
I21
sg5
I17
sg6
I0
sg7
I5
sba(iMAP.tile
Tile
p1427
(dp1428
g4
I22
sg5
I17
sg6
I0
sg7
I30
sba(iMAP.tile
Tile
p1429
(dp1430
g4
I23
sg5
I17
sg6
I0
sg7
I5
sba(iMAP.tile
Tile
p1431
(dp1432
g4
I24
sg5
I17
sg6
I0
sg7
I5
sba(iMAP.tile
Tile
p1433
(dp1434
g4
I25
sg5
I17
sg6
I0
sg7
I5
sba(iMAP.tile
Tile
p1435
(dp1436
g4
I26
sg5
I17
sg6
I0
sg7
I30
sba(iMAP.tile
Tile
p1437
(dp1438
g4
I27
sg5
I17
sg6
I0
sg7
I40
sba(iMAP.tile
Tile
p1439
(dp1440
g4
I28
sg5
I17
sg6
I0
sg7
I75
sba(iMAP.tile
Tile
p1441
(dp1442
g4
I29
sg5
I17
sg6
I0
sg7
I5
sba(iMAP.tile
Tile
p1443
(dp1444
g4
I30
sg5
I17
sg6
I0
sg7
I5
sba(iMAP.tile
Tile
p1445
(dp1446
g4
I31
sg5
I17
sg6
I0
sg7
I71
sba(iMAP.tile
Tile
p1447
(dp1448
g4
I32
sg5
I17
sg6
I0
sg7
I71
sba(iMAP.tile
Tile
p1449
(dp1450
g4
I33
sg5
I17
sg6
I0
sg7
I71
sba(iMAP.tile
Tile
p1451
(dp1452
g4
I34
sg5
I17
sg6
I0
sg7
I71
sba(iMAP.tile
Tile
p1453
(dp1454
g4
I35
sg5
I17
sg6
I0
sg7
I71
sba(iMAP.tile
Tile
p1455
(dp1456
g4
I36
sg5
I17
sg6
I0
sg7
I71
sba(iMAP.tile
Tile
p1457
(dp1458
g4
I37
sg5
I17
sg6
I0
sg7
I71
sba(iMAP.tile
Tile
p1459
(dp1460
g4
I38
sg5
I17
sg6
I0
sg7
I4
sba(iMAP.tile
Tile
p1461
(dp1462
g4
I39
sg5
I17
sg6
I0
sg7
I4
sbaa(lp1463
(iMAP.tile
Tile
p1464
(dp1465
g4
I0
sg5
I18
sg6
I0
sg7
I71
sba(iMAP.tile
Tile
p1466
(dp1467
g4
I1
sg5
I18
sg6
I0
sg7
I71
sba(iMAP.tile
Tile
p1468
(dp1469
g4
I2
sg5
I18
sg6
I0
sg7
I71
sba(iMAP.tile
Tile
p1470
(dp1471
g4
I3
sg5
I18
sg6
I0
sg7
I71
sba(iMAP.tile
Tile
p1472
(dp1473
g4
I4
sg5
I18
sg6
I0
sg7
I71
sba(iMAP.tile
Tile
p1474
(dp1475
g4
I5
sg5
I18
sg6
I0
sg7
I71
sba(iMAP.tile
Tile
p1476
(dp1477
g4
I6
sg5
I18
sg6
I0
sg7
I71
sba(iMAP.tile
Tile
p1478
(dp1479
g4
I7
sg5
I18
sg6
I0
sg7
I71
sba(iMAP.tile
Tile
p1480
(dp1481
g4
I8
sg5
I18
sg6
I0
sg7
I27
sba(iMAP.tile
Tile
p1482
(dp1483
g4
I9
sg5
I18
sg6
I0
sg7
I31
sba(iMAP.tile
Tile
p1484
(dp1485
g4
I10
sg5
I18
sg6
I0
sg7
I31
sba(iMAP.tile
Tile
p1486
(dp1487
g4
I11
sg5
I18
sg6
I0
sg7
I27
sba(iMAP.tile
Tile
p1488
(dp1489
g4
I12
sg5
I18
sg6
I0
sg7
I31
sba(iMAP.tile
Tile
p1490
(dp1491
g4
I13
sg5
I18
sg6
I0
sg7
I31
sba(iMAP.tile
Tile
p1492
(dp1493
g4
I14
sg5
I18
sg6
I0
sg7
I31
sba(iMAP.tile
Tile
p1494
(dp1495
g4
I15
sg5
I18
sg6
I0
sg7
I31
sba(iMAP.tile
Tile
p1496
(dp1497
g4
I16
sg5
I18
sg6
I0
sg7
I75
sba(iMAP.tile
Tile
p1498
(dp1499
g4
I17
sg5
I18
sg6
I0
sg7
I5
sba(iMAP.tile
Tile
p1500
(dp1501
g4
I18
sg5
I18
sg6
I0
sg7
I27
sba(iMAP.tile
Tile
p1502
(dp1503
g4
I19
sg5
I18
sg6
I0
sg7
I31
sba(iMAP.tile
Tile
p1504
(dp1505
g4
I20
sg5
I18
sg6
I0
sg7
I31
sba(iMAP.tile
Tile
p1506
(dp1507
g4
I21
sg5
I18
sg6
I0
sg7
I31
sba(iMAP.tile
Tile
p1508
(dp1509
g4
I22
sg5
I18
sg6
I0
sg7
I27
sba(iMAP.tile
Tile
p1510
(dp1511
g4
I23
sg5
I18
sg6
I0
sg7
I31
sba(iMAP.tile
Tile
p1512
(dp1513
g4
I24
sg5
I18
sg6
I0
sg7
I31
sba(iMAP.tile
Tile
p1514
(dp1515
g4
I25
sg5
I18
sg6
I0
sg7
I31
sba(iMAP.tile
Tile
p1516
(dp1517
g4
I26
sg5
I18
sg6
I0
sg7
I27
sba(iMAP.tile
Tile
p1518
(dp1519
g4
I27
sg5
I18
sg6
I0
sg7
I75
sba(iMAP.tile
Tile
p1520
(dp1521
g4
I28
sg5
I18
sg6
I0
sg7
I5
sba(iMAP.tile
Tile
p1522
(dp1523
g4
I29
sg5
I18
sg6
I0
sg7
I5
sba(iMAP.tile
Tile
p1524
(dp1525
g4
I30
sg5
I18
sg6
I0
sg7
I5
sba(iMAP.tile
Tile
p1526
(dp1527
g4
I31
sg5
I18
sg6
I0
sg7
I71
sba(iMAP.tile
Tile
p1528
(dp1529
g4
I32
sg5
I18
sg6
I0
sg7
I71
sba(iMAP.tile
Tile
p1530
(dp1531
g4
I33
sg5
I18
sg6
I0
sg7
I71
sba(iMAP.tile
Tile
p1532
(dp1533
g4
I34
sg5
I18
sg6
I0
sg7
I71
sba(iMAP.tile
Tile
p1534
(dp1535
g4
I35
sg5
I18
sg6
I0
sg7
I71
sba(iMAP.tile
Tile
p1536
(dp1537
g4
I36
sg5
I18
sg6
I0
sg7
I71
sba(iMAP.tile
Tile
p1538
(dp1539
g4
I37
sg5
I18
sg6
I0
sg7
I4
sba(iMAP.tile
Tile
p1540
(dp1541
g4
I38
sg5
I18
sg6
I0
sg7
I4
sba(iMAP.tile
Tile
p1542
(dp1543
g4
I39
sg5
I18
sg6
I0
sg7
I4
sbaa(lp1544
(iMAP.tile
Tile
p1545
(dp1546
g4
I0
sg5
I19
sg6
I0
sg7
I71
sba(iMAP.tile
Tile
p1547
(dp1548
g4
I1
sg5
I19
sg6
I0
sg7
I71
sba(iMAP.tile
Tile
p1549
(dp1550
g4
I2
sg5
I19
sg6
I0
sg7
I71
sba(iMAP.tile
Tile
p1551
(dp1552
g4
I3
sg5
I19
sg6
I0
sg7
I71
sba(iMAP.tile
Tile
p1553
(dp1554
g4
I4
sg5
I19
sg6
I0
sg7
I71
sba(iMAP.tile
Tile
p1555
(dp1556
g4
I5
sg5
I19
sg6
I0
sg7
I71
sba(iMAP.tile
Tile
p1557
(dp1558
g4
I6
sg5
I19
sg6
I0
sg7
I71
sba(iMAP.tile
Tile
p1559
(dp1560
g4
I7
sg5
I19
sg6
I0
sg7
I71
sba(iMAP.tile
Tile
p1561
(dp1562
g4
I8
sg5
I19
sg6
I0
sg7
I30
sba(iMAP.tile
Tile
p1563
(dp1564
g4
I9
sg5
I19
sg6
I0
sg7
I5
sba(iMAP.tile
Tile
p1565
(dp1566
g4
I10
sg5
I19
sg6
I0
sg7
I116
sba(iMAP.tile
Tile
p1567
(dp1568
g4
I11
sg5
I19
sg6
I0
sg7
I116
sba(iMAP.tile
Tile
p1569
(dp1570
g4
I12
sg5
I19
sg6
I0
sg7
I5
sba(iMAP.tile
Tile
p1571
(dp1572
g4
I13
sg5
I19
sg6
I0
sg7
I5
sba(iMAP.tile
Tile
p1573
(dp1574
g4
I14
sg5
I19
sg6
I0
sg7
I5
sba(iMAP.tile
Tile
p1575
(dp1576
g4
I15
sg5
I19
sg6
I0
sg7
I5
sba(iMAP.tile
Tile
p1577
(dp1578
g4
I16
sg5
I19
sg6
I0
sg7
I5
sba(iMAP.tile
Tile
p1579
(dp1580
g4
I17
sg5
I19
sg6
I0
sg7
I5
sba(iMAP.tile
Tile
p1581
(dp1582
g4
I18
sg5
I19
sg6
I0
sg7
I38
sba(iMAP.tile
Tile
p1583
(dp1584
g4
I19
sg5
I19
sg6
I0
sg7
I5
sba(iMAP.tile
Tile
p1585
(dp1586
g4
I20
sg5
I19
sg6
I0
sg7
I5
sba(iMAP.tile
Tile
p1587
(dp1588
g4
I21
sg5
I19
sg6
I0
sg7
I5
sba(iMAP.tile
Tile
p1589
(dp1590
g4
I22
sg5
I19
sg6
I0
sg7
I5
sba(iMAP.tile
Tile
p1591
(dp1592
g4
I23
sg5
I19
sg6
I0
sg7
I5
sba(iMAP.tile
Tile
p1593
(dp1594
g4
I24
sg5
I19
sg6
I0
sg7
I5
sba(iMAP.tile
Tile
p1595
(dp1596
g4
I25
sg5
I19
sg6
I0
sg7
I5
sba(iMAP.tile
Tile
p1597
(dp1598
g4
I26
sg5
I19
sg6
I0
sg7
I5
sba(iMAP.tile
Tile
p1599
(dp1600
g4
I27
sg5
I19
sg6
I0
sg7
I5
sba(iMAP.tile
Tile
p1601
(dp1602
g4
I28
sg5
I19
sg6
I0
sg7
I5
sba(iMAP.tile
Tile
p1603
(dp1604
g4
I29
sg5
I19
sg6
I0
sg7
I5
sba(iMAP.tile
Tile
p1605
(dp1606
g4
I30
sg5
I19
sg6
I0
sg7
I5
sba(iMAP.tile
Tile
p1607
(dp1608
g4
I31
sg5
I19
sg6
I0
sg7
I5
sba(iMAP.tile
Tile
p1609
(dp1610
g4
I32
sg5
I19
sg6
I0
sg7
I4
sba(iMAP.tile
Tile
p1611
(dp1612
g4
I33
sg5
I19
sg6
I0
sg7
I4
sba(iMAP.tile
Tile
p1613
(dp1614
g4
I34
sg5
I19
sg6
I0
sg7
I4
sba(iMAP.tile
Tile
p1615
(dp1616
g4
I35
sg5
I19
sg6
I0
sg7
I4
sba(iMAP.tile
Tile
p1617
(dp1618
g4
I36
sg5
I19
sg6
I0
sg7
I4
sba(iMAP.tile
Tile
p1619
(dp1620
g4
I37
sg5
I19
sg6
I0
sg7
I4
sba(iMAP.tile
Tile
p1621
(dp1622
g4
I38
sg5
I19
sg6
I0
sg7
I5
sba(iMAP.tile
Tile
p1623
(dp1624
g4
I39
sg5
I19
sg6
I0
sg7
I4
sbaa(lp1625
(iMAP.tile
Tile
p1626
(dp1627
g4
I0
sg5
I20
sg6
I0
sg7
I71
sba(iMAP.tile
Tile
p1628
(dp1629
g4
I1
sg5
I20
sg6
I0
sg7
I71
sba(iMAP.tile
Tile
p1630
(dp1631
g4
I2
sg5
I20
sg6
I0
sg7
I71
sba(iMAP.tile
Tile
p1632
(dp1633
g4
I3
sg5
I20
sg6
I0
sg7
I71
sba(iMAP.tile
Tile
p1634
(dp1635
g4
I4
sg5
I20
sg6
I0
sg7
I71
sba(iMAP.tile
Tile
p1636
(dp1637
g4
I5
sg5
I20
sg6
I0
sg7
I71
sba(iMAP.tile
Tile
p1638
(dp1639
g4
I6
sg5
I20
sg6
I0
sg7
I71
sba(iMAP.tile
Tile
p1640
(dp1641
g4
I7
sg5
I20
sg6
I0
sg7
I71
sba(iMAP.tile
Tile
p1642
(dp1643
g4
I8
sg5
I20
sg6
I0
sg7
I30
sba(iMAP.tile
Tile
p1644
(dp1645
g4
I9
sg5
I20
sg6
I0
sg7
I5
sba(iMAP.tile
Tile
p1646
(dp1647
g4
I10
sg5
I20
sg6
I0
sg7
I116
sba(iMAP.tile
Tile
p1648
(dp1649
g4
I11
sg5
I20
sg6
I0
sg7
I116
sba(iMAP.tile
Tile
p1650
(dp1651
g4
I12
sg5
I20
sg6
I0
sg7
I5
sba(iMAP.tile
Tile
p1652
(dp1653
g4
I13
sg5
I20
sg6
I0
sg7
I5
sba(iMAP.tile
Tile
p1654
(dp1655
g4
I14
sg5
I20
sg6
I0
sg7
I5
sba(iMAP.tile
Tile
p1656
(dp1657
g4
I15
sg5
I20
sg6
I0
sg7
I5
sba(iMAP.tile
Tile
p1658
(dp1659
g4
I16
sg5
I20
sg6
I0
sg7
I5
sba(iMAP.tile
Tile
p1660
(dp1661
g4
I17
sg5
I20
sg6
I0
sg7
I5
sba(iMAP.tile
Tile
p1662
(dp1663
g4
I18
sg5
I20
sg6
I0
sg7
I38
sba(iMAP.tile
Tile
p1664
(dp1665
g4
I19
sg5
I20
sg6
I0
sg7
I5
sba(iMAP.tile
Tile
p1666
(dp1667
g4
I20
sg5
I20
sg6
I0
sg7
I5
sba(iMAP.tile
Tile
p1668
(dp1669
g4
I21
sg5
I20
sg6
I0
sg7
I5
sba(iMAP.tile
Tile
p1670
(dp1671
g4
I22
sg5
I20
sg6
I0
sg7
I5
sba(iMAP.tile
Tile
p1672
(dp1673
g4
I23
sg5
I20
sg6
I0
sg7
I5
sba(iMAP.tile
Tile
p1674
(dp1675
g4
I24
sg5
I20
sg6
I0
sg7
I5
sba(iMAP.tile
Tile
p1676
(dp1677
g4
I25
sg5
I20
sg6
I0
sg7
I5
sba(iMAP.tile
Tile
p1678
(dp1679
g4
I26
sg5
I20
sg6
I0
sg7
I5
sba(iMAP.tile
Tile
p1680
(dp1681
g4
I27
sg5
I20
sg6
I0
sg7
I5
sba(iMAP.tile
Tile
p1682
(dp1683
g4
I28
sg5
I20
sg6
I0
sg7
I5
sba(iMAP.tile
Tile
p1684
(dp1685
g4
I29
sg5
I20
sg6
I0
sg7
I5
sba(iMAP.tile
Tile
p1686
(dp1687
g4
I30
sg5
I20
sg6
I0
sg7
I5
sba(iMAP.tile
Tile
p1688
(dp1689
g4
I31
sg5
I20
sg6
I0
sg7
I5
sba(iMAP.tile
Tile
p1690
(dp1691
g4
I32
sg5
I20
sg6
I0
sg7
I4
sba(iMAP.tile
Tile
p1692
(dp1693
g4
I33
sg5
I20
sg6
I0
sg7
I4
sba(iMAP.tile
Tile
p1694
(dp1695
g4
I34
sg5
I20
sg6
I0
sg7
I4
sba(iMAP.tile
Tile
p1696
(dp1697
g4
I35
sg5
I20
sg6
I0
sg7
I4
sba(iMAP.tile
Tile
p1698
(dp1699
g4
I36
sg5
I20
sg6
I0
sg7
I4
sba(iMAP.tile
Tile
p1700
(dp1701
g4
I37
sg5
I20
sg6
I0
sg7
I4
sba(iMAP.tile
Tile
p1702
(dp1703
g4
I38
sg5
I20
sg6
I0
sg7
I4
sba(iMAP.tile
Tile
p1704
(dp1705
g4
I39
sg5
I20
sg6
I0
sg7
I120
sbaa(lp1706
(iMAP.tile
Tile
p1707
(dp1708
g4
I0
sg5
I21
sg6
I0
sg7
I71
sba(iMAP.tile
Tile
p1709
(dp1710
g4
I1
sg5
I21
sg6
I0
sg7
I71
sba(iMAP.tile
Tile
p1711
(dp1712
g4
I2
sg5
I21
sg6
I0
sg7
I71
sba(iMAP.tile
Tile
p1713
(dp1714
g4
I3
sg5
I21
sg6
I0
sg7
I71
sba(iMAP.tile
Tile
p1715
(dp1716
g4
I4
sg5
I21
sg6
I0
sg7
I71
sba(iMAP.tile
Tile
p1717
(dp1718
g4
I5
sg5
I21
sg6
I0
sg7
I71
sba(iMAP.tile
Tile
p1719
(dp1720
g4
I6
sg5
I21
sg6
I0
sg7
I71
sba(iMAP.tile
Tile
p1721
(dp1722
g4
I7
sg5
I21
sg6
I0
sg7
I71
sba(iMAP.tile
Tile
p1723
(dp1724
g4
I8
sg5
I21
sg6
I0
sg7
I27
sba(iMAP.tile
Tile
p1725
(dp1726
g4
I9
sg5
I21
sg6
I0
sg7
I31
sba(iMAP.tile
Tile
p1727
(dp1728
g4
I10
sg5
I21
sg6
I0
sg7
I31
sba(iMAP.tile
Tile
p1729
(dp1730
g4
I11
sg5
I21
sg6
I0
sg7
I31
sba(iMAP.tile
Tile
p1731
(dp1732
g4
I12
sg5
I21
sg6
I0
sg7
I31
sba(iMAP.tile
Tile
p1733
(dp1734
g4
I13
sg5
I21
sg6
I0
sg7
I31
sba(iMAP.tile
Tile
p1735
(dp1736
g4
I14
sg5
I21
sg6
I0
sg7
I31
sba(iMAP.tile
Tile
p1737
(dp1738
g4
I15
sg5
I21
sg6
I0
sg7
I31
sba(iMAP.tile
Tile
p1739
(dp1740
g4
I16
sg5
I21
sg6
I0
sg7
I51
sba(iMAP.tile
Tile
p1741
(dp1742
g4
I17
sg5
I21
sg6
I0
sg7
I5
sba(iMAP.tile
Tile
p1743
(dp1744
g4
I18
sg5
I21
sg6
I0
sg7
I31
sba(iMAP.tile
Tile
p1745
(dp1746
g4
I19
sg5
I21
sg6
I0
sg7
I31
sba(iMAP.tile
Tile
p1747
(dp1748
g4
I20
sg5
I21
sg6
I0
sg7
I31
sba(iMAP.tile
Tile
p1749
(dp1750
g4
I21
sg5
I21
sg6
I0
sg7
I31
sba(iMAP.tile
Tile
p1751
(dp1752
g4
I22
sg5
I21
sg6
I0
sg7
I31
sba(iMAP.tile
Tile
p1753
(dp1754
g4
I23
sg5
I21
sg6
I0
sg7
I31
sba(iMAP.tile
Tile
p1755
(dp1756
g4
I24
sg5
I21
sg6
I0
sg7
I31
sba(iMAP.tile
Tile
p1757
(dp1758
g4
I25
sg5
I21
sg6
I0
sg7
I31
sba(iMAP.tile
Tile
p1759
(dp1760
g4
I26
sg5
I21
sg6
I0
sg7
I31
sba(iMAP.tile
Tile
p1761
(dp1762
g4
I27
sg5
I21
sg6
I0
sg7
I51
sba(iMAP.tile
Tile
p1763
(dp1764
g4
I28
sg5
I21
sg6
I0
sg7
I5
sba(iMAP.tile
Tile
p1765
(dp1766
g4
I29
sg5
I21
sg6
I0
sg7
I5
sba(iMAP.tile
Tile
p1767
(dp1768
g4
I30
sg5
I21
sg6
I0
sg7
I5
sba(iMAP.tile
Tile
p1769
(dp1770
g4
I31
sg5
I21
sg6
I0
sg7
I71
sba(iMAP.tile
Tile
p1771
(dp1772
g4
I32
sg5
I21
sg6
I0
sg7
I71
sba(iMAP.tile
Tile
p1773
(dp1774
g4
I33
sg5
I21
sg6
I0
sg7
I71
sba(iMAP.tile
Tile
p1775
(dp1776
g4
I34
sg5
I21
sg6
I0
sg7
I71
sba(iMAP.tile
Tile
p1777
(dp1778
g4
I35
sg5
I21
sg6
I0
sg7
I71
sba(iMAP.tile
Tile
p1779
(dp1780
g4
I36
sg5
I21
sg6
I0
sg7
I71
sba(iMAP.tile
Tile
p1781
(dp1782
g4
I37
sg5
I21
sg6
I0
sg7
I4
sba(iMAP.tile
Tile
p1783
(dp1784
g4
I38
sg5
I21
sg6
I0
sg7
I4
sba(iMAP.tile
Tile
p1785
(dp1786
g4
I39
sg5
I21
sg6
I0
sg7
I4
sbaa(lp1787
(iMAP.tile
Tile
p1788
(dp1789
g4
I0
sg5
I22
sg6
I0
sg7
I71
sba(iMAP.tile
Tile
p1790
(dp1791
g4
I1
sg5
I22
sg6
I0
sg7
I71
sba(iMAP.tile
Tile
p1792
(dp1793
g4
I2
sg5
I22
sg6
I0
sg7
I71
sba(iMAP.tile
Tile
p1794
(dp1795
g4
I3
sg5
I22
sg6
I0
sg7
I71
sba(iMAP.tile
Tile
p1796
(dp1797
g4
I4
sg5
I22
sg6
I0
sg7
I71
sba(iMAP.tile
Tile
p1798
(dp1799
g4
I5
sg5
I22
sg6
I0
sg7
I71
sba(iMAP.tile
Tile
p1800
(dp1801
g4
I6
sg5
I22
sg6
I0
sg7
I71
sba(iMAP.tile
Tile
p1802
(dp1803
g4
I7
sg5
I22
sg6
I0
sg7
I71
sba(iMAP.tile
Tile
p1804
(dp1805
g4
I8
sg5
I22
sg6
I0
sg7
I30
sba(iMAP.tile
Tile
p1806
(dp1807
g4
I9
sg5
I22
sg6
I0
sg7
I5
sba(iMAP.tile
Tile
p1808
(dp1809
g4
I10
sg5
I22
sg6
I0
sg7
I40
sba(iMAP.tile
Tile
p1810
(dp1811
g4
I11
sg5
I22
sg6
I0
sg7
I75
sba(iMAP.tile
Tile
p1812
(dp1813
g4
I12
sg5
I22
sg6
I0
sg7
I5
sba(iMAP.tile
Tile
p1814
(dp1815
g4
I13
sg5
I22
sg6
I0
sg7
I5
sba(iMAP.tile
Tile
p1816
(dp1817
g4
I14
sg5
I22
sg6
I0
sg7
I5
sba(iMAP.tile
Tile
p1818
(dp1819
g4
I15
sg5
I22
sg6
I0
sg7
I5
sba(iMAP.tile
Tile
p1820
(dp1821
g4
I16
sg5
I22
sg6
I0
sg7
I30
sba(iMAP.tile
Tile
p1822
(dp1823
g4
I17
sg5
I22
sg6
I0
sg7
I5
sba(iMAP.tile
Tile
p1824
(dp1825
g4
I18
sg5
I22
sg6
I0
sg7
I30
sba(iMAP.tile
Tile
p1826
(dp1827
g4
I19
sg5
I22
sg6
I0
sg7
I5
sba(iMAP.tile
Tile
p1828
(dp1829
g4
I20
sg5
I22
sg6
I0
sg7
I5
sba(iMAP.tile
Tile
p1830
(dp1831
g4
I21
sg5
I22
sg6
I0
sg7
I5
sba(iMAP.tile
Tile
p1832
(dp1833
g4
I22
sg5
I22
sg6
I0
sg7
I30
sba(iMAP.tile
Tile
p1834
(dp1835
g4
I23
sg5
I22
sg6
I0
sg7
I5
sba(iMAP.tile
Tile
p1836
(dp1837
g4
I24
sg5
I22
sg6
I0
sg7
I5
sba(iMAP.tile
Tile
p1838
(dp1839
g4
I25
sg5
I22
sg6
I0
sg7
I5
sba(iMAP.tile
Tile
p1840
(dp1841
g4
I26
sg5
I22
sg6
I0
sg7
I30
sba(iMAP.tile
Tile
p1842
(dp1843
g4
I27
sg5
I22
sg6
I0
sg7
I27
sba(iMAP.tile
Tile
p1844
(dp1845
g4
I28
sg5
I22
sg6
I0
sg7
I51
sba(iMAP.tile
Tile
p1846
(dp1847
g4
I29
sg5
I22
sg6
I0
sg7
I5
sba(iMAP.tile
Tile
p1848
(dp1849
g4
I30
sg5
I22
sg6
I0
sg7
I5
sba(iMAP.tile
Tile
p1850
(dp1851
g4
I31
sg5
I22
sg6
I0
sg7
I71
sba(iMAP.tile
Tile
p1852
(dp1853
g4
I32
sg5
I22
sg6
I0
sg7
I71
sba(iMAP.tile
Tile
p1854
(dp1855
g4
I33
sg5
I22
sg6
I0
sg7
I71
sba(iMAP.tile
Tile
p1856
(dp1857
g4
I34
sg5
I22
sg6
I0
sg7
I71
sba(iMAP.tile
Tile
p1858
(dp1859
g4
I35
sg5
I22
sg6
I0
sg7
I71
sba(iMAP.tile
Tile
p1860
(dp1861
g4
I36
sg5
I22
sg6
I0
sg7
I71
sba(iMAP.tile
Tile
p1862
(dp1863
g4
I37
sg5
I22
sg6
I0
sg7
I71
sba(iMAP.tile
Tile
p1864
(dp1865
g4
I38
sg5
I22
sg6
I0
sg7
I4
sba(iMAP.tile
Tile
p1866
(dp1867
g4
I39
sg5
I22
sg6
I0
sg7
I4
sbaa(lp1868
(iMAP.tile
Tile
p1869
(dp1870
g4
I0
sg5
I23
sg6
I0
sg7
I71
sba(iMAP.tile
Tile
p1871
(dp1872
g4
I1
sg5
I23
sg6
I0
sg7
I71
sba(iMAP.tile
Tile
p1873
(dp1874
g4
I2
sg5
I23
sg6
I0
sg7
I71
sba(iMAP.tile
Tile
p1875
(dp1876
g4
I3
sg5
I23
sg6
I0
sg7
I71
sba(iMAP.tile
Tile
p1877
(dp1878
g4
I4
sg5
I23
sg6
I0
sg7
I71
sba(iMAP.tile
Tile
p1879
(dp1880
g4
I5
sg5
I23
sg6
I0
sg7
I71
sba(iMAP.tile
Tile
p1881
(dp1882
g4
I6
sg5
I23
sg6
I0
sg7
I71
sba(iMAP.tile
Tile
p1883
(dp1884
g4
I7
sg5
I23
sg6
I0
sg7
I71
sba(iMAP.tile
Tile
p1885
(dp1886
g4
I8
sg5
I23
sg6
I0
sg7
I30
sba(iMAP.tile
Tile
p1887
(dp1888
g4
I9
sg5
I23
sg6
I0
sg7
I40
sba(iMAP.tile
Tile
p1889
(dp1890
g4
I10
sg5
I23
sg6
I0
sg7
I75
sba(iMAP.tile
Tile
p1891
(dp1892
g4
I11
sg5
I23
sg6
I0
sg7
I5
sba(iMAP.tile
Tile
p1893
(dp1894
g4
I12
sg5
I23
sg6
I0
sg7
I5
sba(iMAP.tile
Tile
p1895
(dp1896
g4
I13
sg5
I23
sg6
I0
sg7
I5
sba(iMAP.tile
Tile
p1897
(dp1898
g4
I14
sg5
I23
sg6
I0
sg7
I5
sba(iMAP.tile
Tile
p1899
(dp1900
g4
I15
sg5
I23
sg6
I0
sg7
I5
sba(iMAP.tile
Tile
p1901
(dp1902
g4
I16
sg5
I23
sg6
I0
sg7
I30
sba(iMAP.tile
Tile
p1903
(dp1904
g4
I17
sg5
I23
sg6
I0
sg7
I5
sba(iMAP.tile
Tile
p1905
(dp1906
g4
I18
sg5
I23
sg6
I0
sg7
I30
sba(iMAP.tile
Tile
p1907
(dp1908
g4
I19
sg5
I23
sg6
I0
sg7
I5
sba(iMAP.tile
Tile
p1909
(dp1910
g4
I20
sg5
I23
sg6
I0
sg7
I5
sba(iMAP.tile
Tile
p1911
(dp1912
g4
I21
sg5
I23
sg6
I0
sg7
I5
sba(iMAP.tile
Tile
p1913
(dp1914
g4
I22
sg5
I23
sg6
I0
sg7
I30
sba(iMAP.tile
Tile
p1915
(dp1916
g4
I23
sg5
I23
sg6
I0
sg7
I5
sba(iMAP.tile
Tile
p1917
(dp1918
g4
I24
sg5
I23
sg6
I0
sg7
I5
sba(iMAP.tile
Tile
p1919
(dp1920
g4
I25
sg5
I23
sg6
I0
sg7
I5
sba(iMAP.tile
Tile
p1921
(dp1922
g4
I26
sg5
I23
sg6
I0
sg7
I30
sba(iMAP.tile
Tile
p1923
(dp1924
g4
I27
sg5
I23
sg6
I0
sg7
I5
sba(iMAP.tile
Tile
p1925
(dp1926
g4
I28
sg5
I23
sg6
I0
sg7
I27
sba(iMAP.tile
Tile
p1927
(dp1928
g4
I29
sg5
I23
sg6
I0
sg7
I51
sba(iMAP.tile
Tile
p1929
(dp1930
g4
I30
sg5
I23
sg6
I0
sg7
I5
sba(iMAP.tile
Tile
p1931
(dp1932
g4
I31
sg5
I23
sg6
I0
sg7
I71
sba(iMAP.tile
Tile
p1933
(dp1934
g4
I32
sg5
I23
sg6
I0
sg7
I71
sba(iMAP.tile
Tile
p1935
(dp1936
g4
I33
sg5
I23
sg6
I0
sg7
I71
sba(iMAP.tile
Tile
p1937
(dp1938
g4
I34
sg5
I23
sg6
I0
sg7
I71
sba(iMAP.tile
Tile
p1939
(dp1940
g4
I35
sg5
I23
sg6
I0
sg7
I71
sba(iMAP.tile
Tile
p1941
(dp1942
g4
I36
sg5
I23
sg6
I0
sg7
I71
sba(iMAP.tile
Tile
p1943
(dp1944
g4
I37
sg5
I23
sg6
I0
sg7
I71
sba(iMAP.tile
Tile
p1945
(dp1946
g4
I38
sg5
I23
sg6
I0
sg7
I71
sba(iMAP.tile
Tile
p1947
(dp1948
g4
I39
sg5
I23
sg6
I0
sg7
I71
sbaa(lp1949
(iMAP.tile
Tile
p1950
(dp1951
g4
I0
sg5
I24
sg6
I0
sg7
I71
sba(iMAP.tile
Tile
p1952
(dp1953
g4
I1
sg5
I24
sg6
I0
sg7
I71
sba(iMAP.tile
Tile
p1954
(dp1955
g4
I2
sg5
I24
sg6
I0
sg7
I71
sba(iMAP.tile
Tile
p1956
(dp1957
g4
I3
sg5
I24
sg6
I0
sg7
I71
sba(iMAP.tile
Tile
p1958
(dp1959
g4
I4
sg5
I24
sg6
I0
sg7
I71
sba(iMAP.tile
Tile
p1960
(dp1961
g4
I5
sg5
I24
sg6
I0
sg7
I71
sba(iMAP.tile
Tile
p1962
(dp1963
g4
I6
sg5
I24
sg6
I0
sg7
I71
sba(iMAP.tile
Tile
p1964
(dp1965
g4
I7
sg5
I24
sg6
I0
sg7
I71
sba(iMAP.tile
Tile
p1966
(dp1967
g4
I8
sg5
I24
sg6
I0
sg7
I40
sba(iMAP.tile
Tile
p1968
(dp1969
g4
I9
sg5
I24
sg6
I0
sg7
I75
sba(iMAP.tile
Tile
p1970
(dp1971
g4
I10
sg5
I24
sg6
I0
sg7
I5
sba(iMAP.tile
Tile
p1972
(dp1973
g4
I11
sg5
I24
sg6
I0
sg7
I5
sba(iMAP.tile
Tile
p1974
(dp1975
g4
I12
sg5
I24
sg6
I0
sg7
I5
sba(iMAP.tile
Tile
p1976
(dp1977
g4
I13
sg5
I24
sg6
I0
sg7
I5
sba(iMAP.tile
Tile
p1978
(dp1979
g4
I14
sg5
I24
sg6
I0
sg7
I5
sba(iMAP.tile
Tile
p1980
(dp1981
g4
I15
sg5
I24
sg6
I0
sg7
I5
sba(iMAP.tile
Tile
p1982
(dp1983
g4
I16
sg5
I24
sg6
I0
sg7
I30
sba(iMAP.tile
Tile
p1984
(dp1985
g4
I17
sg5
I24
sg6
I0
sg7
I5
sba(iMAP.tile
Tile
p1986
(dp1987
g4
I18
sg5
I24
sg6
I0
sg7
I30
sba(iMAP.tile
Tile
p1988
(dp1989
g4
I19
sg5
I24
sg6
I0
sg7
I5
sba(iMAP.tile
Tile
p1990
(dp1991
g4
I20
sg5
I24
sg6
I0
sg7
I5
sba(iMAP.tile
Tile
p1992
(dp1993
g4
I21
sg5
I24
sg6
I0
sg7
I5
sba(iMAP.tile
Tile
p1994
(dp1995
g4
I22
sg5
I24
sg6
I0
sg7
I30
sba(iMAP.tile
Tile
p1996
(dp1997
g4
I23
sg5
I24
sg6
I0
sg7
I5
sba(iMAP.tile
Tile
p1998
(dp1999
g4
I24
sg5
I24
sg6
I0
sg7
I5
sba(iMAP.tile
Tile
p2000
(dp2001
g4
I25
sg5
I24
sg6
I0
sg7
I5
sba(iMAP.tile
Tile
p2002
(dp2003
g4
I26
sg5
I24
sg6
I0
sg7
I30
sba(iMAP.tile
Tile
p2004
(dp2005
g4
I27
sg5
I24
sg6
I0
sg7
I5
sba(iMAP.tile
Tile
p2006
(dp2007
g4
I28
sg5
I24
sg6
I0
sg7
I5
sba(iMAP.tile
Tile
p2008
(dp2009
g4
I29
sg5
I24
sg6
I0
sg7
I27
sba(iMAP.tile
Tile
p2010
(dp2011
g4
I30
sg5
I24
sg6
I0
sg7
I51
sba(iMAP.tile
Tile
p2012
(dp2013
g4
I31
sg5
I24
sg6
I0
sg7
I71
sba(iMAP.tile
Tile
p2014
(dp2015
g4
I32
sg5
I24
sg6
I0
sg7
I71
sba(iMAP.tile
Tile
p2016
(dp2017
g4
I33
sg5
I24
sg6
I0
sg7
I71
sba(iMAP.tile
Tile
p2018
(dp2019
g4
I34
sg5
I24
sg6
I0
sg7
I71
sba(iMAP.tile
Tile
p2020
(dp2021
g4
I35
sg5
I24
sg6
I0
sg7
I71
sba(iMAP.tile
Tile
p2022
(dp2023
g4
I36
sg5
I24
sg6
I0
sg7
I71
sba(iMAP.tile
Tile
p2024
(dp2025
g4
I37
sg5
I24
sg6
I0
sg7
I71
sba(iMAP.tile
Tile
p2026
(dp2027
g4
I38
sg5
I24
sg6
I0
sg7
I71
sba(iMAP.tile
Tile
p2028
(dp2029
g4
I39
sg5
I24
sg6
I0
sg7
I71
sbaa(lp2030
(iMAP.tile
Tile
p2031
(dp2032
g4
I0
sg5
I25
sg6
I0
sg7
I71
sba(iMAP.tile
Tile
p2033
(dp2034
g4
I1
sg5
I25
sg6
I0
sg7
I71
sba(iMAP.tile
Tile
p2035
(dp2036
g4
I2
sg5
I25
sg6
I0
sg7
I71
sba(iMAP.tile
Tile
p2037
(dp2038
g4
I3
sg5
I25
sg6
I0
sg7
I71
sba(iMAP.tile
Tile
p2039
(dp2040
g4
I4
sg5
I25
sg6
I0
sg7
I71
sba(iMAP.tile
Tile
p2041
(dp2042
g4
I5
sg5
I25
sg6
I0
sg7
I71
sba(iMAP.tile
Tile
p2043
(dp2044
g4
I6
sg5
I25
sg6
I0
sg7
I71
sba(iMAP.tile
Tile
p2045
(dp2046
g4
I7
sg5
I25
sg6
I0
sg7
I71
sba(iMAP.tile
Tile
p2047
(dp2048
g4
I8
sg5
I25
sg6
I0
sg7
I39
sba(iMAP.tile
Tile
p2049
(dp2050
g4
I9
sg5
I25
sg6
I0
sg7
I5
sba(iMAP.tile
Tile
p2051
(dp2052
g4
I10
sg5
I25
sg6
I0
sg7
I5
sba(iMAP.tile
Tile
p2053
(dp2054
g4
I11
sg5
I25
sg6
I0
sg7
I5
sba(iMAP.tile
Tile
p2055
(dp2056
g4
I12
sg5
I25
sg6
I0
sg7
I5
sba(iMAP.tile
Tile
p2057
(dp2058
g4
I13
sg5
I25
sg6
I0
sg7
I5
sba(iMAP.tile
Tile
p2059
(dp2060
g4
I14
sg5
I25
sg6
I0
sg7
I5
sba(iMAP.tile
Tile
p2061
(dp2062
g4
I15
sg5
I25
sg6
I0
sg7
I5
sba(iMAP.tile
Tile
p2063
(dp2064
g4
I16
sg5
I25
sg6
I0
sg7
I30
sba(iMAP.tile
Tile
p2065
(dp2066
g4
I17
sg5
I25
sg6
I0
sg7
I5
sba(iMAP.tile
Tile
p2067
(dp2068
g4
I18
sg5
I25
sg6
I0
sg7
I30
sba(iMAP.tile
Tile
p2069
(dp2070
g4
I19
sg5
I25
sg6
I0
sg7
I31
sba(iMAP.tile
Tile
p2071
(dp2072
g4
I20
sg5
I25
sg6
I0
sg7
I81
sba(iMAP.tile
Tile
p2073
(dp2074
g4
I21
sg5
I25
sg6
I0
sg7
I31
sba(iMAP.tile
Tile
p2075
(dp2076
g4
I22
sg5
I25
sg6
I0
sg7
I27
sba(iMAP.tile
Tile
p2077
(dp2078
g4
I23
sg5
I25
sg6
I0
sg7
I31
sba(iMAP.tile
Tile
p2079
(dp2080
g4
I24
sg5
I25
sg6
I0
sg7
I81
sba(iMAP.tile
Tile
p2081
(dp2082
g4
I25
sg5
I25
sg6
I0
sg7
I31
sba(iMAP.tile
Tile
p2083
(dp2084
g4
I26
sg5
I25
sg6
I0
sg7
I30
sba(iMAP.tile
Tile
p2085
(dp2086
g4
I27
sg5
I25
sg6
I0
sg7
I5
sba(iMAP.tile
Tile
p2087
(dp2088
g4
I28
sg5
I25
sg6
I0
sg7
I5
sba(iMAP.tile
Tile
p2089
(dp2090
g4
I29
sg5
I25
sg6
I0
sg7
I5
sba(iMAP.tile
Tile
p2091
(dp2092
g4
I30
sg5
I25
sg6
I0
sg7
I39
sba(iMAP.tile
Tile
p2093
(dp2094
g4
I31
sg5
I25
sg6
I0
sg7
I71
sba(iMAP.tile
Tile
p2095
(dp2096
g4
I32
sg5
I25
sg6
I0
sg7
I71
sba(iMAP.tile
Tile
p2097
(dp2098
g4
I33
sg5
I25
sg6
I0
sg7
I71
sba(iMAP.tile
Tile
p2099
(dp2100
g4
I34
sg5
I25
sg6
I0
sg7
I71
sba(iMAP.tile
Tile
p2101
(dp2102
g4
I35
sg5
I25
sg6
I0
sg7
I71
sba(iMAP.tile
Tile
p2103
(dp2104
g4
I36
sg5
I25
sg6
I0
sg7
I71
sba(iMAP.tile
Tile
p2105
(dp2106
g4
I37
sg5
I25
sg6
I0
sg7
I71
sba(iMAP.tile
Tile
p2107
(dp2108
g4
I38
sg5
I25
sg6
I0
sg7
I71
sba(iMAP.tile
Tile
p2109
(dp2110
g4
I39
sg5
I25
sg6
I0
sg7
I71
sbaa(lp2111
(iMAP.tile
Tile
p2112
(dp2113
g4
I0
sg5
I26
sg6
I0
sg7
I71
sba(iMAP.tile
Tile
p2114
(dp2115
g4
I1
sg5
I26
sg6
I0
sg7
I71
sba(iMAP.tile
Tile
p2116
(dp2117
g4
I2
sg5
I26
sg6
I0
sg7
I71
sba(iMAP.tile
Tile
p2118
(dp2119
g4
I3
sg5
I26
sg6
I0
sg7
I71
sba(iMAP.tile
Tile
p2120
(dp2121
g4
I4
sg5
I26
sg6
I0
sg7
I71
sba(iMAP.tile
Tile
p2122
(dp2123
g4
I5
sg5
I26
sg6
I0
sg7
I71
sba(iMAP.tile
Tile
p2124
(dp2125
g4
I6
sg5
I26
sg6
I0
sg7
I71
sba(iMAP.tile
Tile
p2126
(dp2127
g4
I7
sg5
I26
sg6
I0
sg7
I71
sba(iMAP.tile
Tile
p2128
(dp2129
g4
I8
sg5
I26
sg6
I0
sg7
I30
sba(iMAP.tile
Tile
p2130
(dp2131
g4
I9
sg5
I26
sg6
I0
sg7
I5
sba(iMAP.tile
Tile
p2132
(dp2133
g4
I10
sg5
I26
sg6
I0
sg7
I5
sba(iMAP.tile
Tile
p2134
(dp2135
g4
I11
sg5
I26
sg6
I0
sg7
I5
sba(iMAP.tile
Tile
p2136
(dp2137
g4
I12
sg5
I26
sg6
I0
sg7
I5
sba(iMAP.tile
Tile
p2138
(dp2139
g4
I13
sg5
I26
sg6
I0
sg7
I5
sba(iMAP.tile
Tile
p2140
(dp2141
g4
I14
sg5
I26
sg6
I0
sg7
I5
sba(iMAP.tile
Tile
p2142
(dp2143
g4
I15
sg5
I26
sg6
I0
sg7
I5
sba(iMAP.tile
Tile
p2144
(dp2145
g4
I16
sg5
I26
sg6
I0
sg7
I30
sba(iMAP.tile
Tile
p2146
(dp2147
g4
I17
sg5
I26
sg6
I0
sg7
I5
sba(iMAP.tile
Tile
p2148
(dp2149
g4
I18
sg5
I26
sg6
I0
sg7
I38
sba(iMAP.tile
Tile
p2150
(dp2151
g4
I19
sg5
I26
sg6
I0
sg7
I5
sba(iMAP.tile
Tile
p2152
(dp2153
g4
I20
sg5
I26
sg6
I0
sg7
I5
sba(iMAP.tile
Tile
p2154
(dp2155
g4
I21
sg5
I26
sg6
I0
sg7
I5
sba(iMAP.tile
Tile
p2156
(dp2157
g4
I22
sg5
I26
sg6
I0
sg7
I5
sba(iMAP.tile
Tile
p2158
(dp2159
g4
I23
sg5
I26
sg6
I0
sg7
I5
sba(iMAP.tile
Tile
p2160
(dp2161
g4
I24
sg5
I26
sg6
I0
sg7
I5
sba(iMAP.tile
Tile
p2162
(dp2163
g4
I25
sg5
I26
sg6
I0
sg7
I5
sba(iMAP.tile
Tile
p2164
(dp2165
g4
I26
sg5
I26
sg6
I0
sg7
I38
sba(iMAP.tile
Tile
p2166
(dp2167
g4
I27
sg5
I26
sg6
I0
sg7
I5
sba(iMAP.tile
Tile
p2168
(dp2169
g4
I28
sg5
I26
sg6
I0
sg7
I5
sba(iMAP.tile
Tile
p2170
(dp2171
g4
I29
sg5
I26
sg6
I0
sg7
I5
sba(iMAP.tile
Tile
p2172
(dp2173
g4
I30
sg5
I26
sg6
I0
sg7
I30
sba(iMAP.tile
Tile
p2174
(dp2175
g4
I31
sg5
I26
sg6
I0
sg7
I71
sba(iMAP.tile
Tile
p2176
(dp2177
g4
I32
sg5
I26
sg6
I0
sg7
I71
sba(iMAP.tile
Tile
p2178
(dp2179
g4
I33
sg5
I26
sg6
I0
sg7
I71
sba(iMAP.tile
Tile
p2180
(dp2181
g4
I34
sg5
I26
sg6
I0
sg7
I71
sba(iMAP.tile
Tile
p2182
(dp2183
g4
I35
sg5
I26
sg6
I0
sg7
I71
sba(iMAP.tile
Tile
p2184
(dp2185
g4
I36
sg5
I26
sg6
I0
sg7
I71
sba(iMAP.tile
Tile
p2186
(dp2187
g4
I37
sg5
I26
sg6
I0
sg7
I71
sba(iMAP.tile
Tile
p2188
(dp2189
g4
I38
sg5
I26
sg6
I0
sg7
I71
sba(iMAP.tile
Tile
p2190
(dp2191
g4
I39
sg5
I26
sg6
I0
sg7
I71
sbaa(lp2192
(iMAP.tile
Tile
p2193
(dp2194
g4
I0
sg5
I27
sg6
I0
sg7
I71
sba(iMAP.tile
Tile
p2195
(dp2196
g4
I1
sg5
I27
sg6
I0
sg7
I71
sba(iMAP.tile
Tile
p2197
(dp2198
g4
I2
sg5
I27
sg6
I0
sg7
I71
sba(iMAP.tile
Tile
p2199
(dp2200
g4
I3
sg5
I27
sg6
I0
sg7
I71
sba(iMAP.tile
Tile
p2201
(dp2202
g4
I4
sg5
I27
sg6
I0
sg7
I71
sba(iMAP.tile
Tile
p2203
(dp2204
g4
I5
sg5
I27
sg6
I0
sg7
I71
sba(iMAP.tile
Tile
p2205
(dp2206
g4
I6
sg5
I27
sg6
I0
sg7
I71
sba(iMAP.tile
Tile
p2207
(dp2208
g4
I7
sg5
I27
sg6
I0
sg7
I71
sba(iMAP.tile
Tile
p2209
(dp2210
g4
I8
sg5
I27
sg6
I0
sg7
I39
sba(iMAP.tile
Tile
p2211
(dp2212
g4
I9
sg5
I27
sg6
I0
sg7
I5
sba(iMAP.tile
Tile
p2213
(dp2214
g4
I10
sg5
I27
sg6
I0
sg7
I5
sba(iMAP.tile
Tile
p2215
(dp2216
g4
I11
sg5
I27
sg6
I0
sg7
I5
sba(iMAP.tile
Tile
p2217
(dp2218
g4
I12
sg5
I27
sg6
I0
sg7
I5
sba(iMAP.tile
Tile
p2219
(dp2220
g4
I13
sg5
I27
sg6
I0
sg7
I5
sba(iMAP.tile
Tile
p2221
(dp2222
g4
I14
sg5
I27
sg6
I0
sg7
I5
sba(iMAP.tile
Tile
p2223
(dp2224
g4
I15
sg5
I27
sg6
I0
sg7
I5
sba(iMAP.tile
Tile
p2225
(dp2226
g4
I16
sg5
I27
sg6
I0
sg7
I30
sba(iMAP.tile
Tile
p2227
(dp2228
g4
I17
sg5
I27
sg6
I0
sg7
I5
sba(iMAP.tile
Tile
p2229
(dp2230
g4
I18
sg5
I27
sg6
I0
sg7
I38
sba(iMAP.tile
Tile
p2231
(dp2232
g4
I19
sg5
I27
sg6
I0
sg7
I5
sba(iMAP.tile
Tile
p2233
(dp2234
g4
I20
sg5
I27
sg6
I0
sg7
I5
sba(iMAP.tile
Tile
p2235
(dp2236
g4
I21
sg5
I27
sg6
I0
sg7
I5
sba(iMAP.tile
Tile
p2237
(dp2238
g4
I22
sg5
I27
sg6
I0
sg7
I5
sba(iMAP.tile
Tile
p2239
(dp2240
g4
I23
sg5
I27
sg6
I0
sg7
I5
sba(iMAP.tile
Tile
p2241
(dp2242
g4
I24
sg5
I27
sg6
I0
sg7
I5
sba(iMAP.tile
Tile
p2243
(dp2244
g4
I25
sg5
I27
sg6
I0
sg7
I5
sba(iMAP.tile
Tile
p2245
(dp2246
g4
I26
sg5
I27
sg6
I0
sg7
I38
sba(iMAP.tile
Tile
p2247
(dp2248
g4
I27
sg5
I27
sg6
I0
sg7
I5
sba(iMAP.tile
Tile
p2249
(dp2250
g4
I28
sg5
I27
sg6
I0
sg7
I5
sba(iMAP.tile
Tile
p2251
(dp2252
g4
I29
sg5
I27
sg6
I0
sg7
I5
sba(iMAP.tile
Tile
p2253
(dp2254
g4
I30
sg5
I27
sg6
I0
sg7
I39
sba(iMAP.tile
Tile
p2255
(dp2256
g4
I31
sg5
I27
sg6
I0
sg7
I71
sba(iMAP.tile
Tile
p2257
(dp2258
g4
I32
sg5
I27
sg6
I0
sg7
I71
sba(iMAP.tile
Tile
p2259
(dp2260
g4
I33
sg5
I27
sg6
I0
sg7
I71
sba(iMAP.tile
Tile
p2261
(dp2262
g4
I34
sg5
I27
sg6
I0
sg7
I71
sba(iMAP.tile
Tile
p2263
(dp2264
g4
I35
sg5
I27
sg6
I0
sg7
I71
sba(iMAP.tile
Tile
p2265
(dp2266
g4
I36
sg5
I27
sg6
I0
sg7
I71
sba(iMAP.tile
Tile
p2267
(dp2268
g4
I37
sg5
I27
sg6
I0
sg7
I71
sba(iMAP.tile
Tile
p2269
(dp2270
g4
I38
sg5
I27
sg6
I0
sg7
I71
sba(iMAP.tile
Tile
p2271
(dp2272
g4
I39
sg5
I27
sg6
I0
sg7
I71
sbaa(lp2273
(iMAP.tile
Tile
p2274
(dp2275
g4
I0
sg5
I28
sg6
I0
sg7
I71
sba(iMAP.tile
Tile
p2276
(dp2277
g4
I1
sg5
I28
sg6
I0
sg7
I71
sba(iMAP.tile
Tile
p2278
(dp2279
g4
I2
sg5
I28
sg6
I0
sg7
I71
sba(iMAP.tile
Tile
p2280
(dp2281
g4
I3
sg5
I28
sg6
I0
sg7
I71
sba(iMAP.tile
Tile
p2282
(dp2283
g4
I4
sg5
I28
sg6
I0
sg7
I71
sba(iMAP.tile
Tile
p2284
(dp2285
g4
I5
sg5
I28
sg6
I0
sg7
I71
sba(iMAP.tile
Tile
p2286
(dp2287
g4
I6
sg5
I28
sg6
I0
sg7
I71
sba(iMAP.tile
Tile
p2288
(dp2289
g4
I7
sg5
I28
sg6
I0
sg7
I71
sba(iMAP.tile
Tile
p2290
(dp2291
g4
I8
sg5
I28
sg6
I0
sg7
I27
sba(iMAP.tile
Tile
p2292
(dp2293
g4
I9
sg5
I28
sg6
I0
sg7
I51
sba(iMAP.tile
Tile
p2294
(dp2295
g4
I10
sg5
I28
sg6
I0
sg7
I5
sba(iMAP.tile
Tile
p2296
(dp2297
g4
I11
sg5
I28
sg6
I0
sg7
I5
sba(iMAP.tile
Tile
p2298
(dp2299
g4
I12
sg5
I28
sg6
I0
sg7
I5
sba(iMAP.tile
Tile
p2300
(dp2301
g4
I13
sg5
I28
sg6
I0
sg7
I5
sba(iMAP.tile
Tile
p2302
(dp2303
g4
I14
sg5
I28
sg6
I0
sg7
I5
sba(iMAP.tile
Tile
p2304
(dp2305
g4
I15
sg5
I28
sg6
I0
sg7
I5
sba(iMAP.tile
Tile
p2306
(dp2307
g4
I16
sg5
I28
sg6
I0
sg7
I30
sba(iMAP.tile
Tile
p2308
(dp2309
g4
I17
sg5
I28
sg6
I0
sg7
I5
sba(iMAP.tile
Tile
p2310
(dp2311
g4
I18
sg5
I28
sg6
I0
sg7
I30
sba(iMAP.tile
Tile
p2312
(dp2313
g4
I19
sg5
I28
sg6
I0
sg7
I31
sba(iMAP.tile
Tile
p2314
(dp2315
g4
I20
sg5
I28
sg6
I0
sg7
I81
sba(iMAP.tile
Tile
p2316
(dp2317
g4
I21
sg5
I28
sg6
I0
sg7
I31
sba(iMAP.tile
Tile
p2318
(dp2319
g4
I22
sg5
I28
sg6
I0
sg7
I31
sba(iMAP.tile
Tile
p2320
(dp2321
g4
I23
sg5
I28
sg6
I0
sg7
I31
sba(iMAP.tile
Tile
p2322
(dp2323
g4
I24
sg5
I28
sg6
I0
sg7
I81
sba(iMAP.tile
Tile
p2324
(dp2325
g4
I25
sg5
I28
sg6
I0
sg7
I31
sba(iMAP.tile
Tile
p2326
(dp2327
g4
I26
sg5
I28
sg6
I0
sg7
I30
sba(iMAP.tile
Tile
p2328
(dp2329
g4
I27
sg5
I28
sg6
I0
sg7
I5
sba(iMAP.tile
Tile
p2330
(dp2331
g4
I28
sg5
I28
sg6
I0
sg7
I5
sba(iMAP.tile
Tile
p2332
(dp2333
g4
I29
sg5
I28
sg6
I0
sg7
I40
sba(iMAP.tile
Tile
p2334
(dp2335
g4
I30
sg5
I28
sg6
I0
sg7
I75
sba(iMAP.tile
Tile
p2336
(dp2337
g4
I31
sg5
I28
sg6
I0
sg7
I71
sba(iMAP.tile
Tile
p2338
(dp2339
g4
I32
sg5
I28
sg6
I0
sg7
I71
sba(iMAP.tile
Tile
p2340
(dp2341
g4
I33
sg5
I28
sg6
I0
sg7
I71
sba(iMAP.tile
Tile
p2342
(dp2343
g4
I34
sg5
I28
sg6
I0
sg7
I71
sba(iMAP.tile
Tile
p2344
(dp2345
g4
I35
sg5
I28
sg6
I0
sg7
I71
sba(iMAP.tile
Tile
p2346
(dp2347
g4
I36
sg5
I28
sg6
I0
sg7
I71
sba(iMAP.tile
Tile
p2348
(dp2349
g4
I37
sg5
I28
sg6
I0
sg7
I71
sba(iMAP.tile
Tile
p2350
(dp2351
g4
I38
sg5
I28
sg6
I0
sg7
I71
sba(iMAP.tile
Tile
p2352
(dp2353
g4
I39
sg5
I28
sg6
I0
sg7
I71
sbaa(lp2354
(iMAP.tile
Tile
p2355
(dp2356
g4
I0
sg5
I29
sg6
I0
sg7
I71
sba(iMAP.tile
Tile
p2357
(dp2358
g4
I1
sg5
I29
sg6
I0
sg7
I71
sba(iMAP.tile
Tile
p2359
(dp2360
g4
I2
sg5
I29
sg6
I0
sg7
I71
sba(iMAP.tile
Tile
p2361
(dp2362
g4
I3
sg5
I29
sg6
I0
sg7
I71
sba(iMAP.tile
Tile
p2363
(dp2364
g4
I4
sg5
I29
sg6
I0
sg7
I71
sba(iMAP.tile
Tile
p2365
(dp2366
g4
I5
sg5
I29
sg6
I0
sg7
I71
sba(iMAP.tile
Tile
p2367
(dp2368
g4
I6
sg5
I29
sg6
I0
sg7
I71
sba(iMAP.tile
Tile
p2369
(dp2370
g4
I7
sg5
I29
sg6
I0
sg7
I71
sba(iMAP.tile
Tile
p2371
(dp2372
g4
I8
sg5
I29
sg6
I0
sg7
I71
sba(iMAP.tile
Tile
p2373
(dp2374
g4
I9
sg5
I29
sg6
I0
sg7
I27
sba(iMAP.tile
Tile
p2375
(dp2376
g4
I10
sg5
I29
sg6
I0
sg7
I51
sba(iMAP.tile
Tile
p2377
(dp2378
g4
I11
sg5
I29
sg6
I0
sg7
I5
sba(iMAP.tile
Tile
p2379
(dp2380
g4
I12
sg5
I29
sg6
I0
sg7
I5
sba(iMAP.tile
Tile
p2381
(dp2382
g4
I13
sg5
I29
sg6
I0
sg7
I5
sba(iMAP.tile
Tile
p2383
(dp2384
g4
I14
sg5
I29
sg6
I0
sg7
I5
sba(iMAP.tile
Tile
p2385
(dp2386
g4
I15
sg5
I29
sg6
I0
sg7
I5
sba(iMAP.tile
Tile
p2387
(dp2388
g4
I16
sg5
I29
sg6
I0
sg7
I30
sba(iMAP.tile
Tile
p2389
(dp2390
g4
I17
sg5
I29
sg6
I0
sg7
I5
sba(iMAP.tile
Tile
p2391
(dp2392
g4
I18
sg5
I29
sg6
I0
sg7
I30
sba(iMAP.tile
Tile
p2393
(dp2394
g4
I19
sg5
I29
sg6
I0
sg7
I5
sba(iMAP.tile
Tile
p2395
(dp2396
g4
I20
sg5
I29
sg6
I0
sg7
I5
sba(iMAP.tile
Tile
p2397
(dp2398
g4
I21
sg5
I29
sg6
I0
sg7
I5
sba(iMAP.tile
Tile
p2399
(dp2400
g4
I22
sg5
I29
sg6
I0
sg7
I30
sba(iMAP.tile
Tile
p2401
(dp2402
g4
I23
sg5
I29
sg6
I0
sg7
I5
sba(iMAP.tile
Tile
p2403
(dp2404
g4
I24
sg5
I29
sg6
I0
sg7
I5
sba(iMAP.tile
Tile
p2405
(dp2406
g4
I25
sg5
I29
sg6
I0
sg7
I5
sba(iMAP.tile
Tile
p2407
(dp2408
g4
I26
sg5
I29
sg6
I0
sg7
I30
sba(iMAP.tile
Tile
p2409
(dp2410
g4
I27
sg5
I29
sg6
I0
sg7
I5
sba(iMAP.tile
Tile
p2411
(dp2412
g4
I28
sg5
I29
sg6
I0
sg7
I40
sba(iMAP.tile
Tile
p2413
(dp2414
g4
I29
sg5
I29
sg6
I0
sg7
I75
sba(iMAP.tile
Tile
p2415
(dp2416
g4
I30
sg5
I29
sg6
I0
sg7
I71
sba(iMAP.tile
Tile
p2417
(dp2418
g4
I31
sg5
I29
sg6
I0
sg7
I71
sba(iMAP.tile
Tile
p2419
(dp2420
g4
I32
sg5
I29
sg6
I0
sg7
I71
sba(iMAP.tile
Tile
p2421
(dp2422
g4
I33
sg5
I29
sg6
I0
sg7
I71
sba(iMAP.tile
Tile
p2423
(dp2424
g4
I34
sg5
I29
sg6
I0
sg7
I71
sba(iMAP.tile
Tile
p2425
(dp2426
g4
I35
sg5
I29
sg6
I0
sg7
I71
sba(iMAP.tile
Tile
p2427
(dp2428
g4
I36
sg5
I29
sg6
I0
sg7
I71
sba(iMAP.tile
Tile
p2429
(dp2430
g4
I37
sg5
I29
sg6
I0
sg7
I71
sba(iMAP.tile
Tile
p2431
(dp2432
g4
I38
sg5
I29
sg6
I0
sg7
I71
sba(iMAP.tile
Tile
p2433
(dp2434
g4
I39
sg5
I29
sg6
I0
sg7
I71
sbaa(lp2435
(iMAP.tile
Tile
p2436
(dp2437
g4
I0
sg5
I30
sg6
I0
sg7
I71
sba(iMAP.tile
Tile
p2438
(dp2439
g4
I1
sg5
I30
sg6
I0
sg7
I71
sba(iMAP.tile
Tile
p2440
(dp2441
g4
I2
sg5
I30
sg6
I0
sg7
I71
sba(iMAP.tile
Tile
p2442
(dp2443
g4
I3
sg5
I30
sg6
I0
sg7
I71
sba(iMAP.tile
Tile
p2444
(dp2445
g4
I4
sg5
I30
sg6
I0
sg7
I71
sba(iMAP.tile
Tile
p2446
(dp2447
g4
I5
sg5
I30
sg6
I0
sg7
I71
sba(iMAP.tile
Tile
p2448
(dp2449
g4
I6
sg5
I30
sg6
I0
sg7
I71
sba(iMAP.tile
Tile
p2450
(dp2451
g4
I7
sg5
I30
sg6
I0
sg7
I71
sba(iMAP.tile
Tile
p2452
(dp2453
g4
I8
sg5
I30
sg6
I0
sg7
I71
sba(iMAP.tile
Tile
p2454
(dp2455
g4
I9
sg5
I30
sg6
I0
sg7
I71
sba(iMAP.tile
Tile
p2456
(dp2457
g4
I10
sg5
I30
sg6
I0
sg7
I27
sba(iMAP.tile
Tile
p2458
(dp2459
g4
I11
sg5
I30
sg6
I0
sg7
I51
sba(iMAP.tile
Tile
p2460
(dp2461
g4
I12
sg5
I30
sg6
I0
sg7
I5
sba(iMAP.tile
Tile
p2462
(dp2463
g4
I13
sg5
I30
sg6
I0
sg7
I5
sba(iMAP.tile
Tile
p2464
(dp2465
g4
I14
sg5
I30
sg6
I0
sg7
I5
sba(iMAP.tile
Tile
p2466
(dp2467
g4
I15
sg5
I30
sg6
I0
sg7
I5
sba(iMAP.tile
Tile
p2468
(dp2469
g4
I16
sg5
I30
sg6
I0
sg7
I30
sba(iMAP.tile
Tile
p2470
(dp2471
g4
I17
sg5
I30
sg6
I0
sg7
I5
sba(iMAP.tile
Tile
p2472
(dp2473
g4
I18
sg5
I30
sg6
I0
sg7
I30
sba(iMAP.tile
Tile
p2474
(dp2475
g4
I19
sg5
I30
sg6
I0
sg7
I5
sba(iMAP.tile
Tile
p2476
(dp2477
g4
I20
sg5
I30
sg6
I0
sg7
I110
sba(iMAP.tile
Tile
p2478
(dp2479
g4
I21
sg5
I30
sg6
I0
sg7
I5
sba(iMAP.tile
Tile
p2480
(dp2481
g4
I22
sg5
I30
sg6
I0
sg7
I30
sba(iMAP.tile
Tile
p2482
(dp2483
g4
I23
sg5
I30
sg6
I0
sg7
I5
sba(iMAP.tile
Tile
p2484
(dp2485
g4
I24
sg5
I30
sg6
I0
sg7
I5
sba(iMAP.tile
Tile
p2486
(dp2487
g4
I25
sg5
I30
sg6
I0
sg7
I5
sba(iMAP.tile
Tile
p2488
(dp2489
g4
I26
sg5
I30
sg6
I0
sg7
I30
sba(iMAP.tile
Tile
p2490
(dp2491
g4
I27
sg5
I30
sg6
I0
sg7
I40
sba(iMAP.tile
Tile
p2492
(dp2493
g4
I28
sg5
I30
sg6
I0
sg7
I75
sba(iMAP.tile
Tile
p2494
(dp2495
g4
I29
sg5
I30
sg6
I0
sg7
I71
sba(iMAP.tile
Tile
p2496
(dp2497
g4
I30
sg5
I30
sg6
I0
sg7
I71
sba(iMAP.tile
Tile
p2498
(dp2499
g4
I31
sg5
I30
sg6
I0
sg7
I71
sba(iMAP.tile
Tile
p2500
(dp2501
g4
I32
sg5
I30
sg6
I0
sg7
I71
sba(iMAP.tile
Tile
p2502
(dp2503
g4
I33
sg5
I30
sg6
I0
sg7
I71
sba(iMAP.tile
Tile
p2504
(dp2505
g4
I34
sg5
I30
sg6
I0
sg7
I71
sba(iMAP.tile
Tile
p2506
(dp2507
g4
I35
sg5
I30
sg6
I0
sg7
I71
sba(iMAP.tile
Tile
p2508
(dp2509
g4
I36
sg5
I30
sg6
I0
sg7
I71
sba(iMAP.tile
Tile
p2510
(dp2511
g4
I37
sg5
I30
sg6
I0
sg7
I71
sba(iMAP.tile
Tile
p2512
(dp2513
g4
I38
sg5
I30
sg6
I0
sg7
I71
sba(iMAP.tile
Tile
p2514
(dp2515
g4
I39
sg5
I30
sg6
I0
sg7
I71
sbaa(lp2516
(iMAP.tile
Tile
p2517
(dp2518
g4
I0
sg5
I31
sg6
I0
sg7
I71
sba(iMAP.tile
Tile
p2519
(dp2520
g4
I1
sg5
I31
sg6
I0
sg7
I71
sba(iMAP.tile
Tile
p2521
(dp2522
g4
I2
sg5
I31
sg6
I0
sg7
I71
sba(iMAP.tile
Tile
p2523
(dp2524
g4
I3
sg5
I31
sg6
I0
sg7
I71
sba(iMAP.tile
Tile
p2525
(dp2526
g4
I4
sg5
I31
sg6
I0
sg7
I71
sba(iMAP.tile
Tile
p2527
(dp2528
g4
I5
sg5
I31
sg6
I0
sg7
I71
sba(iMAP.tile
Tile
p2529
(dp2530
g4
I6
sg5
I31
sg6
I0
sg7
I71
sba(iMAP.tile
Tile
p2531
(dp2532
g4
I7
sg5
I31
sg6
I0
sg7
I71
sba(iMAP.tile
Tile
p2533
(dp2534
g4
I8
sg5
I31
sg6
I0
sg7
I71
sba(iMAP.tile
Tile
p2535
(dp2536
g4
I9
sg5
I31
sg6
I0
sg7
I71
sba(iMAP.tile
Tile
p2537
(dp2538
g4
I10
sg5
I31
sg6
I0
sg7
I71
sba(iMAP.tile
Tile
p2539
(dp2540
g4
I11
sg5
I31
sg6
I0
sg7
I27
sba(iMAP.tile
Tile
p2541
(dp2542
g4
I12
sg5
I31
sg6
I0
sg7
I51
sba(iMAP.tile
Tile
p2543
(dp2544
g4
I13
sg5
I31
sg6
I0
sg7
I5
sba(iMAP.tile
Tile
p2545
(dp2546
g4
I14
sg5
I31
sg6
I0
sg7
I5
sba(iMAP.tile
Tile
p2547
(dp2548
g4
I15
sg5
I31
sg6
I0
sg7
I5
sba(iMAP.tile
Tile
p2549
(dp2550
g4
I16
sg5
I31
sg6
I0
sg7
I30
sba(iMAP.tile
Tile
p2551
(dp2552
g4
I17
sg5
I31
sg6
I0
sg7
I5
sba(iMAP.tile
Tile
p2553
(dp2554
g4
I18
sg5
I31
sg6
I0
sg7
I30
sba(iMAP.tile
Tile
p2555
(dp2556
g4
I19
sg5
I31
sg6
I0
sg7
I5
sba(iMAP.tile
Tile
p2557
(dp2558
g4
I20
sg5
I31
sg6
I0
sg7
I5
sba(iMAP.tile
Tile
p2559
(dp2560
g4
I21
sg5
I31
sg6
I0
sg7
I5
sba(iMAP.tile
Tile
p2561
(dp2562
g4
I22
sg5
I31
sg6
I0
sg7
I30
sba(iMAP.tile
Tile
p2563
(dp2564
g4
I23
sg5
I31
sg6
I0
sg7
I5
sba(iMAP.tile
Tile
p2565
(dp2566
g4
I24
sg5
I31
sg6
I0
sg7
I5
sba(iMAP.tile
Tile
p2567
(dp2568
g4
I25
sg5
I31
sg6
I0
sg7
I5
sba(iMAP.tile
Tile
p2569
(dp2570
g4
I26
sg5
I31
sg6
I0
sg7
I27
sba(iMAP.tile
Tile
p2571
(dp2572
g4
I27
sg5
I31
sg6
I0
sg7
I75
sba(iMAP.tile
Tile
p2573
(dp2574
g4
I28
sg5
I31
sg6
I0
sg7
I71
sba(iMAP.tile
Tile
p2575
(dp2576
g4
I29
sg5
I31
sg6
I0
sg7
I71
sba(iMAP.tile
Tile
p2577
(dp2578
g4
I30
sg5
I31
sg6
I0
sg7
I71
sba(iMAP.tile
Tile
p2579
(dp2580
g4
I31
sg5
I31
sg6
I0
sg7
I71
sba(iMAP.tile
Tile
p2581
(dp2582
g4
I32
sg5
I31
sg6
I0
sg7
I71
sba(iMAP.tile
Tile
p2583
(dp2584
g4
I33
sg5
I31
sg6
I0
sg7
I71
sba(iMAP.tile
Tile
p2585
(dp2586
g4
I34
sg5
I31
sg6
I0
sg7
I71
sba(iMAP.tile
Tile
p2587
(dp2588
g4
I35
sg5
I31
sg6
I0
sg7
I71
sba(iMAP.tile
Tile
p2589
(dp2590
g4
I36
sg5
I31
sg6
I0
sg7
I71
sba(iMAP.tile
Tile
p2591
(dp2592
g4
I37
sg5
I31
sg6
I0
sg7
I71
sba(iMAP.tile
Tile
p2593
(dp2594
g4
I38
sg5
I31
sg6
I0
sg7
I71
sba(iMAP.tile
Tile
p2595
(dp2596
g4
I39
sg5
I31
sg6
I0
sg7
I71
sbaa(lp2597
(iMAP.tile
Tile
p2598
(dp2599
g4
I0
sg5
I32
sg6
I0
sg7
I71
sba(iMAP.tile
Tile
p2600
(dp2601
g4
I1
sg5
I32
sg6
I0
sg7
I71
sba(iMAP.tile
Tile
p2602
(dp2603
g4
I2
sg5
I32
sg6
I0
sg7
I71
sba(iMAP.tile
Tile
p2604
(dp2605
g4
I3
sg5
I32
sg6
I0
sg7
I71
sba(iMAP.tile
Tile
p2606
(dp2607
g4
I4
sg5
I32
sg6
I0
sg7
I71
sba(iMAP.tile
Tile
p2608
(dp2609
g4
I5
sg5
I32
sg6
I0
sg7
I71
sba(iMAP.tile
Tile
p2610
(dp2611
g4
I6
sg5
I32
sg6
I0
sg7
I71
sba(iMAP.tile
Tile
p2612
(dp2613
g4
I7
sg5
I32
sg6
I0
sg7
I71
sba(iMAP.tile
Tile
p2614
(dp2615
g4
I8
sg5
I32
sg6
I0
sg7
I71
sba(iMAP.tile
Tile
p2616
(dp2617
g4
I9
sg5
I32
sg6
I0
sg7
I71
sba(iMAP.tile
Tile
p2618
(dp2619
g4
I10
sg5
I32
sg6
I0
sg7
I71
sba(iMAP.tile
Tile
p2620
(dp2621
g4
I11
sg5
I32
sg6
I0
sg7
I71
sba(iMAP.tile
Tile
p2622
(dp2623
g4
I12
sg5
I32
sg6
I0
sg7
I27
sba(iMAP.tile
Tile
p2624
(dp2625
g4
I13
sg5
I32
sg6
I0
sg7
I31
sba(iMAP.tile
Tile
p2626
(dp2627
g4
I14
sg5
I32
sg6
I0
sg7
I31
sba(iMAP.tile
Tile
p2628
(dp2629
g4
I15
sg5
I32
sg6
I0
sg7
I31
sba(iMAP.tile
Tile
p2630
(dp2631
g4
I16
sg5
I32
sg6
I0
sg7
I27
sba(iMAP.tile
Tile
p2632
(dp2633
g4
I17
sg5
I32
sg6
I0
sg7
I31
sba(iMAP.tile
Tile
p2634
(dp2635
g4
I18
sg5
I32
sg6
I0
sg7
I27
sba(iMAP.tile
Tile
p2636
(dp2637
g4
I19
sg5
I32
sg6
I0
sg7
I31
sba(iMAP.tile
Tile
p2638
(dp2639
g4
I20
sg5
I32
sg6
I0
sg7
I31
sba(iMAP.tile
Tile
p2640
(dp2641
g4
I21
sg5
I32
sg6
I0
sg7
I31
sba(iMAP.tile
Tile
p2642
(dp2643
g4
I22
sg5
I32
sg6
I0
sg7
I27
sba(iMAP.tile
Tile
p2644
(dp2645
g4
I23
sg5
I32
sg6
I0
sg7
I31
sba(iMAP.tile
Tile
p2646
(dp2647
g4
I24
sg5
I32
sg6
I0
sg7
I31
sba(iMAP.tile
Tile
p2648
(dp2649
g4
I25
sg5
I32
sg6
I0
sg7
I31
sba(iMAP.tile
Tile
p2650
(dp2651
g4
I26
sg5
I32
sg6
I0
sg7
I30
sba(iMAP.tile
Tile
p2652
(dp2653
g4
I27
sg5
I32
sg6
I0
sg7
I71
sba(iMAP.tile
Tile
p2654
(dp2655
g4
I28
sg5
I32
sg6
I0
sg7
I71
sba(iMAP.tile
Tile
p2656
(dp2657
g4
I29
sg5
I32
sg6
I0
sg7
I71
sba(iMAP.tile
Tile
p2658
(dp2659
g4
I30
sg5
I32
sg6
I0
sg7
I71
sba(iMAP.tile
Tile
p2660
(dp2661
g4
I31
sg5
I32
sg6
I0
sg7
I71
sba(iMAP.tile
Tile
p2662
(dp2663
g4
I32
sg5
I32
sg6
I0
sg7
I71
sba(iMAP.tile
Tile
p2664
(dp2665
g4
I33
sg5
I32
sg6
I0
sg7
I71
sba(iMAP.tile
Tile
p2666
(dp2667
g4
I34
sg5
I32
sg6
I0
sg7
I71
sba(iMAP.tile
Tile
p2668
(dp2669
g4
I35
sg5
I32
sg6
I0
sg7
I71
sba(iMAP.tile
Tile
p2670
(dp2671
g4
I36
sg5
I32
sg6
I0
sg7
I71
sba(iMAP.tile
Tile
p2672
(dp2673
g4
I37
sg5
I32
sg6
I0
sg7
I71
sba(iMAP.tile
Tile
p2674
(dp2675
g4
I38
sg5
I32
sg6
I0
sg7
I71
sba(iMAP.tile
Tile
p2676
(dp2677
g4
I39
sg5
I32
sg6
I0
sg7
I71
sbaa(lp2678
(iMAP.tile
Tile
p2679
(dp2680
g4
I0
sg5
I33
sg6
I0
sg7
I71
sba(iMAP.tile
Tile
p2681
(dp2682
g4
I1
sg5
I33
sg6
I0
sg7
I71
sba(iMAP.tile
Tile
p2683
(dp2684
g4
I2
sg5
I33
sg6
I0
sg7
I71
sba(iMAP.tile
Tile
p2685
(dp2686
g4
I3
sg5
I33
sg6
I0
sg7
I71
sba(iMAP.tile
Tile
p2687
(dp2688
g4
I4
sg5
I33
sg6
I0
sg7
I71
sba(iMAP.tile
Tile
p2689
(dp2690
g4
I5
sg5
I33
sg6
I0
sg7
I71
sba(iMAP.tile
Tile
p2691
(dp2692
g4
I6
sg5
I33
sg6
I0
sg7
I71
sba(iMAP.tile
Tile
p2693
(dp2694
g4
I7
sg5
I33
sg6
I0
sg7
I71
sba(iMAP.tile
Tile
p2695
(dp2696
g4
I8
sg5
I33
sg6
I0
sg7
I71
sba(iMAP.tile
Tile
p2697
(dp2698
g4
I9
sg5
I33
sg6
I0
sg7
I71
sba(iMAP.tile
Tile
p2699
(dp2700
g4
I10
sg5
I33
sg6
I0
sg7
I71
sba(iMAP.tile
Tile
p2701
(dp2702
g4
I11
sg5
I33
sg6
I0
sg7
I71
sba(iMAP.tile
Tile
p2703
(dp2704
g4
I12
sg5
I33
sg6
I0
sg7
I71
sba(iMAP.tile
Tile
p2705
(dp2706
g4
I13
sg5
I33
sg6
I0
sg7
I71
sba(iMAP.tile
Tile
p2707
(dp2708
g4
I14
sg5
I33
sg6
I0
sg7
I71
sba(iMAP.tile
Tile
p2709
(dp2710
g4
I15
sg5
I33
sg6
I0
sg7
I71
sba(iMAP.tile
Tile
p2711
(dp2712
g4
I16
sg5
I33
sg6
I0
sg7
I71
sba(iMAP.tile
Tile
p2713
(dp2714
g4
I17
sg5
I33
sg6
I0
sg7
I71
sba(iMAP.tile
Tile
p2715
(dp2716
g4
I18
sg5
I33
sg6
I0
sg7
I71
sba(iMAP.tile
Tile
p2717
(dp2718
g4
I19
sg5
I33
sg6
I0
sg7
I71
sba(iMAP.tile
Tile
p2719
(dp2720
g4
I20
sg5
I33
sg6
I0
sg7
I71
sba(iMAP.tile
Tile
p2721
(dp2722
g4
I21
sg5
I33
sg6
I0
sg7
I71
sba(iMAP.tile
Tile
p2723
(dp2724
g4
I22
sg5
I33
sg6
I0
sg7
I71
sba(iMAP.tile
Tile
p2725
(dp2726
g4
I23
sg5
I33
sg6
I0
sg7
I71
sba(iMAP.tile
Tile
p2727
(dp2728
g4
I24
sg5
I33
sg6
I0
sg7
I71
sba(iMAP.tile
Tile
p2729
(dp2730
g4
I25
sg5
I33
sg6
I0
sg7
I71
sba(iMAP.tile
Tile
p2731
(dp2732
g4
I26
sg5
I33
sg6
I0
sg7
I71
sba(iMAP.tile
Tile
p2733
(dp2734
g4
I27
sg5
I33
sg6
I0
sg7
I71
sba(iMAP.tile
Tile
p2735
(dp2736
g4
I28
sg5
I33
sg6
I0
sg7
I71
sba(iMAP.tile
Tile
p2737
(dp2738
g4
I29
sg5
I33
sg6
I0
sg7
I71
sba(iMAP.tile
Tile
p2739
(dp2740
g4
I30
sg5
I33
sg6
I0
sg7
I71
sba(iMAP.tile
Tile
p2741
(dp2742
g4
I31
sg5
I33
sg6
I0
sg7
I71
sba(iMAP.tile
Tile
p2743
(dp2744
g4
I32
sg5
I33
sg6
I0
sg7
I71
sba(iMAP.tile
Tile
p2745
(dp2746
g4
I33
sg5
I33
sg6
I0
sg7
I71
sba(iMAP.tile
Tile
p2747
(dp2748
g4
I34
sg5
I33
sg6
I0
sg7
I71
sba(iMAP.tile
Tile
p2749
(dp2750
g4
I35
sg5
I33
sg6
I0
sg7
I71
sba(iMAP.tile
Tile
p2751
(dp2752
g4
I36
sg5
I33
sg6
I0
sg7
I71
sba(iMAP.tile
Tile
p2753
(dp2754
g4
I37
sg5
I33
sg6
I0
sg7
I71
sba(iMAP.tile
Tile
p2755
(dp2756
g4
I38
sg5
I33
sg6
I0
sg7
I71
sba(iMAP.tile
Tile
p2757
(dp2758
g4
I39
sg5
I33
sg6
I0
sg7
I71
sbaa(lp2759
(iMAP.tile
Tile
p2760
(dp2761
g4
I0
sg5
I34
sg6
I0
sg7
I71
sba(iMAP.tile
Tile
p2762
(dp2763
g4
I1
sg5
I34
sg6
I0
sg7
I71
sba(iMAP.tile
Tile
p2764
(dp2765
g4
I2
sg5
I34
sg6
I0
sg7
I71
sba(iMAP.tile
Tile
p2766
(dp2767
g4
I3
sg5
I34
sg6
I0
sg7
I71
sba(iMAP.tile
Tile
p2768
(dp2769
g4
I4
sg5
I34
sg6
I0
sg7
I71
sba(iMAP.tile
Tile
p2770
(dp2771
g4
I5
sg5
I34
sg6
I0
sg7
I71
sba(iMAP.tile
Tile
p2772
(dp2773
g4
I6
sg5
I34
sg6
I0
sg7
I71
sba(iMAP.tile
Tile
p2774
(dp2775
g4
I7
sg5
I34
sg6
I0
sg7
I71
sba(iMAP.tile
Tile
p2776
(dp2777
g4
I8
sg5
I34
sg6
I0
sg7
I71
sba(iMAP.tile
Tile
p2778
(dp2779
g4
I9
sg5
I34
sg6
I0
sg7
I71
sba(iMAP.tile
Tile
p2780
(dp2781
g4
I10
sg5
I34
sg6
I0
sg7
I71
sba(iMAP.tile
Tile
p2782
(dp2783
g4
I11
sg5
I34
sg6
I0
sg7
I71
sba(iMAP.tile
Tile
p2784
(dp2785
g4
I12
sg5
I34
sg6
I0
sg7
I71
sba(iMAP.tile
Tile
p2786
(dp2787
g4
I13
sg5
I34
sg6
I0
sg7
I71
sba(iMAP.tile
Tile
p2788
(dp2789
g4
I14
sg5
I34
sg6
I0
sg7
I71
sba(iMAP.tile
Tile
p2790
(dp2791
g4
I15
sg5
I34
sg6
I0
sg7
I71
sba(iMAP.tile
Tile
p2792
(dp2793
g4
I16
sg5
I34
sg6
I0
sg7
I71
sba(iMAP.tile
Tile
p2794
(dp2795
g4
I17
sg5
I34
sg6
I0
sg7
I71
sba(iMAP.tile
Tile
p2796
(dp2797
g4
I18
sg5
I34
sg6
I0
sg7
I71
sba(iMAP.tile
Tile
p2798
(dp2799
g4
I19
sg5
I34
sg6
I0
sg7
I71
sba(iMAP.tile
Tile
p2800
(dp2801
g4
I20
sg5
I34
sg6
I0
sg7
I71
sba(iMAP.tile
Tile
p2802
(dp2803
g4
I21
sg5
I34
sg6
I0
sg7
I71
sba(iMAP.tile
Tile
p2804
(dp2805
g4
I22
sg5
I34
sg6
I0
sg7
I71
sba(iMAP.tile
Tile
p2806
(dp2807
g4
I23
sg5
I34
sg6
I0
sg7
I71
sba(iMAP.tile
Tile
p2808
(dp2809
g4
I24
sg5
I34
sg6
I0
sg7
I71
sba(iMAP.tile
Tile
p2810
(dp2811
g4
I25
sg5
I34
sg6
I0
sg7
I71
sba(iMAP.tile
Tile
p2812
(dp2813
g4
I26
sg5
I34
sg6
I0
sg7
I71
sba(iMAP.tile
Tile
p2814
(dp2815
g4
I27
sg5
I34
sg6
I0
sg7
I71
sba(iMAP.tile
Tile
p2816
(dp2817
g4
I28
sg5
I34
sg6
I0
sg7
I71
sba(iMAP.tile
Tile
p2818
(dp2819
g4
I29
sg5
I34
sg6
I0
sg7
I71
sba(iMAP.tile
Tile
p2820
(dp2821
g4
I30
sg5
I34
sg6
I0
sg7
I71
sba(iMAP.tile
Tile
p2822
(dp2823
g4
I31
sg5
I34
sg6
I0
sg7
I71
sba(iMAP.tile
Tile
p2824
(dp2825
g4
I32
sg5
I34
sg6
I0
sg7
I71
sba(iMAP.tile
Tile
p2826
(dp2827
g4
I33
sg5
I34
sg6
I0
sg7
I71
sba(iMAP.tile
Tile
p2828
(dp2829
g4
I34
sg5
I34
sg6
I0
sg7
I71
sba(iMAP.tile
Tile
p2830
(dp2831
g4
I35
sg5
I34
sg6
I0
sg7
I71
sba(iMAP.tile
Tile
p2832
(dp2833
g4
I36
sg5
I34
sg6
I0
sg7
I71
sba(iMAP.tile
Tile
p2834
(dp2835
g4
I37
sg5
I34
sg6
I0
sg7
I71
sba(iMAP.tile
Tile
p2836
(dp2837
g4
I38
sg5
I34
sg6
I0
sg7
I71
sba(iMAP.tile
Tile
p2838
(dp2839
g4
I39
sg5
I34
sg6
I0
sg7
I71
sbaa(lp2840
(iMAP.tile
Tile
p2841
(dp2842
g4
I0
sg5
I35
sg6
I0
sg7
I71
sba(iMAP.tile
Tile
p2843
(dp2844
g4
I1
sg5
I35
sg6
I0
sg7
I71
sba(iMAP.tile
Tile
p2845
(dp2846
g4
I2
sg5
I35
sg6
I0
sg7
I71
sba(iMAP.tile
Tile
p2847
(dp2848
g4
I3
sg5
I35
sg6
I0
sg7
I71
sba(iMAP.tile
Tile
p2849
(dp2850
g4
I4
sg5
I35
sg6
I0
sg7
I71
sba(iMAP.tile
Tile
p2851
(dp2852
g4
I5
sg5
I35
sg6
I0
sg7
I71
sba(iMAP.tile
Tile
p2853
(dp2854
g4
I6
sg5
I35
sg6
I0
sg7
I71
sba(iMAP.tile
Tile
p2855
(dp2856
g4
I7
sg5
I35
sg6
I0
sg7
I71
sba(iMAP.tile
Tile
p2857
(dp2858
g4
I8
sg5
I35
sg6
I0
sg7
I71
sba(iMAP.tile
Tile
p2859
(dp2860
g4
I9
sg5
I35
sg6
I0
sg7
I71
sba(iMAP.tile
Tile
p2861
(dp2862
g4
I10
sg5
I35
sg6
I0
sg7
I71
sba(iMAP.tile
Tile
p2863
(dp2864
g4
I11
sg5
I35
sg6
I0
sg7
I71
sba(iMAP.tile
Tile
p2865
(dp2866
g4
I12
sg5
I35
sg6
I0
sg7
I71
sba(iMAP.tile
Tile
p2867
(dp2868
g4
I13
sg5
I35
sg6
I0
sg7
I71
sba(iMAP.tile
Tile
p2869
(dp2870
g4
I14
sg5
I35
sg6
I0
sg7
I71
sba(iMAP.tile
Tile
p2871
(dp2872
g4
I15
sg5
I35
sg6
I0
sg7
I71
sba(iMAP.tile
Tile
p2873
(dp2874
g4
I16
sg5
I35
sg6
I0
sg7
I71
sba(iMAP.tile
Tile
p2875
(dp2876
g4
I17
sg5
I35
sg6
I0
sg7
I71
sba(iMAP.tile
Tile
p2877
(dp2878
g4
I18
sg5
I35
sg6
I0
sg7
I71
sba(iMAP.tile
Tile
p2879
(dp2880
g4
I19
sg5
I35
sg6
I0
sg7
I71
sba(iMAP.tile
Tile
p2881
(dp2882
g4
I20
sg5
I35
sg6
I0
sg7
I71
sba(iMAP.tile
Tile
p2883
(dp2884
g4
I21
sg5
I35
sg6
I0
sg7
I71
sba(iMAP.tile
Tile
p2885
(dp2886
g4
I22
sg5
I35
sg6
I0
sg7
I71
sba(iMAP.tile
Tile
p2887
(dp2888
g4
I23
sg5
I35
sg6
I0
sg7
I71
sba(iMAP.tile
Tile
p2889
(dp2890
g4
I24
sg5
I35
sg6
I0
sg7
I71
sba(iMAP.tile
Tile
p2891
(dp2892
g4
I25
sg5
I35
sg6
I0
sg7
I71
sba(iMAP.tile
Tile
p2893
(dp2894
g4
I26
sg5
I35
sg6
I0
sg7
I71
sba(iMAP.tile
Tile
p2895
(dp2896
g4
I27
sg5
I35
sg6
I0
sg7
I71
sba(iMAP.tile
Tile
p2897
(dp2898
g4
I28
sg5
I35
sg6
I0
sg7
I71
sba(iMAP.tile
Tile
p2899
(dp2900
g4
I29
sg5
I35
sg6
I0
sg7
I71
sba(iMAP.tile
Tile
p2901
(dp2902
g4
I30
sg5
I35
sg6
I0
sg7
I71
sba(iMAP.tile
Tile
p2903
(dp2904
g4
I31
sg5
I35
sg6
I0
sg7
I71
sba(iMAP.tile
Tile
p2905
(dp2906
g4
I32
sg5
I35
sg6
I0
sg7
I71
sba(iMAP.tile
Tile
p2907
(dp2908
g4
I33
sg5
I35
sg6
I0
sg7
I71
sba(iMAP.tile
Tile
p2909
(dp2910
g4
I34
sg5
I35
sg6
I0
sg7
I71
sba(iMAP.tile
Tile
p2911
(dp2912
g4
I35
sg5
I35
sg6
I0
sg7
I71
sba(iMAP.tile
Tile
p2913
(dp2914
g4
I36
sg5
I35
sg6
I0
sg7
I71
sba(iMAP.tile
Tile
p2915
(dp2916
g4
I37
sg5
I35
sg6
I0
sg7
I71
sba(iMAP.tile
Tile
p2917
(dp2918
g4
I38
sg5
I35
sg6
I0
sg7
I71
sba(iMAP.tile
Tile
p2919
(dp2920
g4
I39
sg5
I35
sg6
I0
sg7
I71
sbaa(lp2921
(iMAP.tile
Tile
p2922
(dp2923
g4
I0
sg5
I36
sg6
I0
sg7
I71
sba(iMAP.tile
Tile
p2924
(dp2925
g4
I1
sg5
I36
sg6
I0
sg7
I71
sba(iMAP.tile
Tile
p2926
(dp2927
g4
I2
sg5
I36
sg6
I0
sg7
I71
sba(iMAP.tile
Tile
p2928
(dp2929
g4
I3
sg5
I36
sg6
I0
sg7
I71
sba(iMAP.tile
Tile
p2930
(dp2931
g4
I4
sg5
I36
sg6
I0
sg7
I71
sba(iMAP.tile
Tile
p2932
(dp2933
g4
I5
sg5
I36
sg6
I0
sg7
I71
sba(iMAP.tile
Tile
p2934
(dp2935
g4
I6
sg5
I36
sg6
I0
sg7
I71
sba(iMAP.tile
Tile
p2936
(dp2937
g4
I7
sg5
I36
sg6
I0
sg7
I71
sba(iMAP.tile
Tile
p2938
(dp2939
g4
I8
sg5
I36
sg6
I0
sg7
I71
sba(iMAP.tile
Tile
p2940
(dp2941
g4
I9
sg5
I36
sg6
I0
sg7
I71
sba(iMAP.tile
Tile
p2942
(dp2943
g4
I10
sg5
I36
sg6
I0
sg7
I71
sba(iMAP.tile
Tile
p2944
(dp2945
g4
I11
sg5
I36
sg6
I0
sg7
I71
sba(iMAP.tile
Tile
p2946
(dp2947
g4
I12
sg5
I36
sg6
I0
sg7
I71
sba(iMAP.tile
Tile
p2948
(dp2949
g4
I13
sg5
I36
sg6
I0
sg7
I71
sba(iMAP.tile
Tile
p2950
(dp2951
g4
I14
sg5
I36
sg6
I0
sg7
I71
sba(iMAP.tile
Tile
p2952
(dp2953
g4
I15
sg5
I36
sg6
I0
sg7
I71
sba(iMAP.tile
Tile
p2954
(dp2955
g4
I16
sg5
I36
sg6
I0
sg7
I71
sba(iMAP.tile
Tile
p2956
(dp2957
g4
I17
sg5
I36
sg6
I0
sg7
I71
sba(iMAP.tile
Tile
p2958
(dp2959
g4
I18
sg5
I36
sg6
I0
sg7
I71
sba(iMAP.tile
Tile
p2960
(dp2961
g4
I19
sg5
I36
sg6
I0
sg7
I71
sba(iMAP.tile
Tile
p2962
(dp2963
g4
I20
sg5
I36
sg6
I0
sg7
I71
sba(iMAP.tile
Tile
p2964
(dp2965
g4
I21
sg5
I36
sg6
I0
sg7
I71
sba(iMAP.tile
Tile
p2966
(dp2967
g4
I22
sg5
I36
sg6
I0
sg7
I71
sba(iMAP.tile
Tile
p2968
(dp2969
g4
I23
sg5
I36
sg6
I0
sg7
I71
sba(iMAP.tile
Tile
p2970
(dp2971
g4
I24
sg5
I36
sg6
I0
sg7
I71
sba(iMAP.tile
Tile
p2972
(dp2973
g4
I25
sg5
I36
sg6
I0
sg7
I71
sba(iMAP.tile
Tile
p2974
(dp2975
g4
I26
sg5
I36
sg6
I0
sg7
I71
sba(iMAP.tile
Tile
p2976
(dp2977
g4
I27
sg5
I36
sg6
I0
sg7
I71
sba(iMAP.tile
Tile
p2978
(dp2979
g4
I28
sg5
I36
sg6
I0
sg7
I71
sba(iMAP.tile
Tile
p2980
(dp2981
g4
I29
sg5
I36
sg6
I0
sg7
I71
sba(iMAP.tile
Tile
p2982
(dp2983
g4
I30
sg5
I36
sg6
I0
sg7
I71
sba(iMAP.tile
Tile
p2984
(dp2985
g4
I31
sg5
I36
sg6
I0
sg7
I71
sba(iMAP.tile
Tile
p2986
(dp2987
g4
I32
sg5
I36
sg6
I0
sg7
I71
sba(iMAP.tile
Tile
p2988
(dp2989
g4
I33
sg5
I36
sg6
I0
sg7
I71
sba(iMAP.tile
Tile
p2990
(dp2991
g4
I34
sg5
I36
sg6
I0
sg7
I71
sba(iMAP.tile
Tile
p2992
(dp2993
g4
I35
sg5
I36
sg6
I0
sg7
I71
sba(iMAP.tile
Tile
p2994
(dp2995
g4
I36
sg5
I36
sg6
I0
sg7
I71
sba(iMAP.tile
Tile
p2996
(dp2997
g4
I37
sg5
I36
sg6
I0
sg7
I71
sba(iMAP.tile
Tile
p2998
(dp2999
g4
I38
sg5
I36
sg6
I0
sg7
I71
sba(iMAP.tile
Tile
p3000
(dp3001
g4
I39
sg5
I36
sg6
I0
sg7
I71
sbaa(lp3002
(iMAP.tile
Tile
p3003
(dp3004
g4
I0
sg5
I37
sg6
I0
sg7
I71
sba(iMAP.tile
Tile
p3005
(dp3006
g4
I1
sg5
I37
sg6
I0
sg7
I71
sba(iMAP.tile
Tile
p3007
(dp3008
g4
I2
sg5
I37
sg6
I0
sg7
I71
sba(iMAP.tile
Tile
p3009
(dp3010
g4
I3
sg5
I37
sg6
I0
sg7
I71
sba(iMAP.tile
Tile
p3011
(dp3012
g4
I4
sg5
I37
sg6
I0
sg7
I71
sba(iMAP.tile
Tile
p3013
(dp3014
g4
I5
sg5
I37
sg6
I0
sg7
I71
sba(iMAP.tile
Tile
p3015
(dp3016
g4
I6
sg5
I37
sg6
I0
sg7
I71
sba(iMAP.tile
Tile
p3017
(dp3018
g4
I7
sg5
I37
sg6
I0
sg7
I71
sba(iMAP.tile
Tile
p3019
(dp3020
g4
I8
sg5
I37
sg6
I0
sg7
I71
sba(iMAP.tile
Tile
p3021
(dp3022
g4
I9
sg5
I37
sg6
I0
sg7
I71
sba(iMAP.tile
Tile
p3023
(dp3024
g4
I10
sg5
I37
sg6
I0
sg7
I71
sba(iMAP.tile
Tile
p3025
(dp3026
g4
I11
sg5
I37
sg6
I0
sg7
I71
sba(iMAP.tile
Tile
p3027
(dp3028
g4
I12
sg5
I37
sg6
I0
sg7
I71
sba(iMAP.tile
Tile
p3029
(dp3030
g4
I13
sg5
I37
sg6
I0
sg7
I71
sba(iMAP.tile
Tile
p3031
(dp3032
g4
I14
sg5
I37
sg6
I0
sg7
I71
sba(iMAP.tile
Tile
p3033
(dp3034
g4
I15
sg5
I37
sg6
I0
sg7
I71
sba(iMAP.tile
Tile
p3035
(dp3036
g4
I16
sg5
I37
sg6
I0
sg7
I71
sba(iMAP.tile
Tile
p3037
(dp3038
g4
I17
sg5
I37
sg6
I0
sg7
I71
sba(iMAP.tile
Tile
p3039
(dp3040
g4
I18
sg5
I37
sg6
I0
sg7
I71
sba(iMAP.tile
Tile
p3041
(dp3042
g4
I19
sg5
I37
sg6
I0
sg7
I71
sba(iMAP.tile
Tile
p3043
(dp3044
g4
I20
sg5
I37
sg6
I0
sg7
I71
sba(iMAP.tile
Tile
p3045
(dp3046
g4
I21
sg5
I37
sg6
I0
sg7
I71
sba(iMAP.tile
Tile
p3047
(dp3048
g4
I22
sg5
I37
sg6
I0
sg7
I71
sba(iMAP.tile
Tile
p3049
(dp3050
g4
I23
sg5
I37
sg6
I0
sg7
I71
sba(iMAP.tile
Tile
p3051
(dp3052
g4
I24
sg5
I37
sg6
I0
sg7
I71
sba(iMAP.tile
Tile
p3053
(dp3054
g4
I25
sg5
I37
sg6
I0
sg7
I71
sba(iMAP.tile
Tile
p3055
(dp3056
g4
I26
sg5
I37
sg6
I0
sg7
I71
sba(iMAP.tile
Tile
p3057
(dp3058
g4
I27
sg5
I37
sg6
I0
sg7
I71
sba(iMAP.tile
Tile
p3059
(dp3060
g4
I28
sg5
I37
sg6
I0
sg7
I71
sba(iMAP.tile
Tile
p3061
(dp3062
g4
I29
sg5
I37
sg6
I0
sg7
I71
sba(iMAP.tile
Tile
p3063
(dp3064
g4
I30
sg5
I37
sg6
I0
sg7
I71
sba(iMAP.tile
Tile
p3065
(dp3066
g4
I31
sg5
I37
sg6
I0
sg7
I71
sba(iMAP.tile
Tile
p3067
(dp3068
g4
I32
sg5
I37
sg6
I0
sg7
I71
sba(iMAP.tile
Tile
p3069
(dp3070
g4
I33
sg5
I37
sg6
I0
sg7
I71
sba(iMAP.tile
Tile
p3071
(dp3072
g4
I34
sg5
I37
sg6
I0
sg7
I71
sba(iMAP.tile
Tile
p3073
(dp3074
g4
I35
sg5
I37
sg6
I0
sg7
I71
sba(iMAP.tile
Tile
p3075
(dp3076
g4
I36
sg5
I37
sg6
I0
sg7
I71
sba(iMAP.tile
Tile
p3077
(dp3078
g4
I37
sg5
I37
sg6
I0
sg7
I71
sba(iMAP.tile
Tile
p3079
(dp3080
g4
I38
sg5
I37
sg6
I0
sg7
I71
sba(iMAP.tile
Tile
p3081
(dp3082
g4
I39
sg5
I37
sg6
I0
sg7
I71
sbaa(lp3083
(iMAP.tile
Tile
p3084
(dp3085
g4
I0
sg5
I38
sg6
I0
sg7
I71
sba(iMAP.tile
Tile
p3086
(dp3087
g4
I1
sg5
I38
sg6
I0
sg7
I71
sba(iMAP.tile
Tile
p3088
(dp3089
g4
I2
sg5
I38
sg6
I0
sg7
I71
sba(iMAP.tile
Tile
p3090
(dp3091
g4
I3
sg5
I38
sg6
I0
sg7
I71
sba(iMAP.tile
Tile
p3092
(dp3093
g4
I4
sg5
I38
sg6
I0
sg7
I71
sba(iMAP.tile
Tile
p3094
(dp3095
g4
I5
sg5
I38
sg6
I0
sg7
I71
sba(iMAP.tile
Tile
p3096
(dp3097
g4
I6
sg5
I38
sg6
I0
sg7
I71
sba(iMAP.tile
Tile
p3098
(dp3099
g4
I7
sg5
I38
sg6
I0
sg7
I71
sba(iMAP.tile
Tile
p3100
(dp3101
g4
I8
sg5
I38
sg6
I0
sg7
I71
sba(iMAP.tile
Tile
p3102
(dp3103
g4
I9
sg5
I38
sg6
I0
sg7
I71
sba(iMAP.tile
Tile
p3104
(dp3105
g4
I10
sg5
I38
sg6
I0
sg7
I71
sba(iMAP.tile
Tile
p3106
(dp3107
g4
I11
sg5
I38
sg6
I0
sg7
I71
sba(iMAP.tile
Tile
p3108
(dp3109
g4
I12
sg5
I38
sg6
I0
sg7
I71
sba(iMAP.tile
Tile
p3110
(dp3111
g4
I13
sg5
I38
sg6
I0
sg7
I71
sba(iMAP.tile
Tile
p3112
(dp3113
g4
I14
sg5
I38
sg6
I0
sg7
I71
sba(iMAP.tile
Tile
p3114
(dp3115
g4
I15
sg5
I38
sg6
I0
sg7
I71
sba(iMAP.tile
Tile
p3116
(dp3117
g4
I16
sg5
I38
sg6
I0
sg7
I71
sba(iMAP.tile
Tile
p3118
(dp3119
g4
I17
sg5
I38
sg6
I0
sg7
I71
sba(iMAP.tile
Tile
p3120
(dp3121
g4
I18
sg5
I38
sg6
I0
sg7
I71
sba(iMAP.tile
Tile
p3122
(dp3123
g4
I19
sg5
I38
sg6
I0
sg7
I71
sba(iMAP.tile
Tile
p3124
(dp3125
g4
I20
sg5
I38
sg6
I0
sg7
I71
sba(iMAP.tile
Tile
p3126
(dp3127
g4
I21
sg5
I38
sg6
I0
sg7
I71
sba(iMAP.tile
Tile
p3128
(dp3129
g4
I22
sg5
I38
sg6
I0
sg7
I71
sba(iMAP.tile
Tile
p3130
(dp3131
g4
I23
sg5
I38
sg6
I0
sg7
I71
sba(iMAP.tile
Tile
p3132
(dp3133
g4
I24
sg5
I38
sg6
I0
sg7
I71
sba(iMAP.tile
Tile
p3134
(dp3135
g4
I25
sg5
I38
sg6
I0
sg7
I71
sba(iMAP.tile
Tile
p3136
(dp3137
g4
I26
sg5
I38
sg6
I0
sg7
I71
sba(iMAP.tile
Tile
p3138
(dp3139
g4
I27
sg5
I38
sg6
I0
sg7
I71
sba(iMAP.tile
Tile
p3140
(dp3141
g4
I28
sg5
I38
sg6
I0
sg7
I71
sba(iMAP.tile
Tile
p3142
(dp3143
g4
I29
sg5
I38
sg6
I0
sg7
I71
sba(iMAP.tile
Tile
p3144
(dp3145
g4
I30
sg5
I38
sg6
I0
sg7
I71
sba(iMAP.tile
Tile
p3146
(dp3147
g4
I31
sg5
I38
sg6
I0
sg7
I71
sba(iMAP.tile
Tile
p3148
(dp3149
g4
I32
sg5
I38
sg6
I0
sg7
I71
sba(iMAP.tile
Tile
p3150
(dp3151
g4
I33
sg5
I38
sg6
I0
sg7
I71
sba(iMAP.tile
Tile
p3152
(dp3153
g4
I34
sg5
I38
sg6
I0
sg7
I71
sba(iMAP.tile
Tile
p3154
(dp3155
g4
I35
sg5
I38
sg6
I0
sg7
I71
sba(iMAP.tile
Tile
p3156
(dp3157
g4
I36
sg5
I38
sg6
I0
sg7
I71
sba(iMAP.tile
Tile
p3158
(dp3159
g4
I37
sg5
I38
sg6
I0
sg7
I71
sba(iMAP.tile
Tile
p3160
(dp3161
g4
I38
sg5
I38
sg6
I0
sg7
I71
sba(iMAP.tile
Tile
p3162
(dp3163
g4
I39
sg5
I38
sg6
I0
sg7
I71
sbaa(lp3164
(iMAP.tile
Tile
p3165
(dp3166
g4
I0
sg5
I39
sg6
I0
sg7
I71
sba(iMAP.tile
Tile
p3167
(dp3168
g4
I1
sg5
I39
sg6
I0
sg7
I71
sba(iMAP.tile
Tile
p3169
(dp3170
g4
I2
sg5
I39
sg6
I0
sg7
I71
sba(iMAP.tile
Tile
p3171
(dp3172
g4
I3
sg5
I39
sg6
I0
sg7
I71
sba(iMAP.tile
Tile
p3173
(dp3174
g4
I4
sg5
I39
sg6
I0
sg7
I71
sba(iMAP.tile
Tile
p3175
(dp3176
g4
I5
sg5
I39
sg6
I0
sg7
I71
sba(iMAP.tile
Tile
p3177
(dp3178
g4
I6
sg5
I39
sg6
I0
sg7
I71
sba(iMAP.tile
Tile
p3179
(dp3180
g4
I7
sg5
I39
sg6
I0
sg7
I71
sba(iMAP.tile
Tile
p3181
(dp3182
g4
I8
sg5
I39
sg6
I0
sg7
I71
sba(iMAP.tile
Tile
p3183
(dp3184
g4
I9
sg5
I39
sg6
I0
sg7
I71
sba(iMAP.tile
Tile
p3185
(dp3186
g4
I10
sg5
I39
sg6
I0
sg7
I71
sba(iMAP.tile
Tile
p3187
(dp3188
g4
I11
sg5
I39
sg6
I0
sg7
I71
sba(iMAP.tile
Tile
p3189
(dp3190
g4
I12
sg5
I39
sg6
I0
sg7
I71
sba(iMAP.tile
Tile
p3191
(dp3192
g4
I13
sg5
I39
sg6
I0
sg7
I71
sba(iMAP.tile
Tile
p3193
(dp3194
g4
I14
sg5
I39
sg6
I0
sg7
I71
sba(iMAP.tile
Tile
p3195
(dp3196
g4
I15
sg5
I39
sg6
I0
sg7
I71
sba(iMAP.tile
Tile
p3197
(dp3198
g4
I16
sg5
I39
sg6
I0
sg7
I71
sba(iMAP.tile
Tile
p3199
(dp3200
g4
I17
sg5
I39
sg6
I0
sg7
I71
sba(iMAP.tile
Tile
p3201
(dp3202
g4
I18
sg5
I39
sg6
I0
sg7
I71
sba(iMAP.tile
Tile
p3203
(dp3204
g4
I19
sg5
I39
sg6
I0
sg7
I71
sba(iMAP.tile
Tile
p3205
(dp3206
g4
I20
sg5
I39
sg6
I0
sg7
I71
sba(iMAP.tile
Tile
p3207
(dp3208
g4
I21
sg5
I39
sg6
I0
sg7
I71
sba(iMAP.tile
Tile
p3209
(dp3210
g4
I22
sg5
I39
sg6
I0
sg7
I71
sba(iMAP.tile
Tile
p3211
(dp3212
g4
I23
sg5
I39
sg6
I0
sg7
I71
sba(iMAP.tile
Tile
p3213
(dp3214
g4
I24
sg5
I39
sg6
I0
sg7
I71
sba(iMAP.tile
Tile
p3215
(dp3216
g4
I25
sg5
I39
sg6
I0
sg7
I71
sba(iMAP.tile
Tile
p3217
(dp3218
g4
I26
sg5
I39
sg6
I0
sg7
I71
sba(iMAP.tile
Tile
p3219
(dp3220
g4
I27
sg5
I39
sg6
I0
sg7
I71
sba(iMAP.tile
Tile
p3221
(dp3222
g4
I28
sg5
I39
sg6
I0
sg7
I71
sba(iMAP.tile
Tile
p3223
(dp3224
g4
I29
sg5
I39
sg6
I0
sg7
I71
sba(iMAP.tile
Tile
p3225
(dp3226
g4
I30
sg5
I39
sg6
I0
sg7
I71
sba(iMAP.tile
Tile
p3227
(dp3228
g4
I31
sg5
I39
sg6
I0
sg7
I71
sba(iMAP.tile
Tile
p3229
(dp3230
g4
I32
sg5
I39
sg6
I0
sg7
I71
sba(iMAP.tile
Tile
p3231
(dp3232
g4
I33
sg5
I39
sg6
I0
sg7
I71
sba(iMAP.tile
Tile
p3233
(dp3234
g4
I34
sg5
I39
sg6
I0
sg7
I71
sba(iMAP.tile
Tile
p3235
(dp3236
g4
I35
sg5
I39
sg6
I0
sg7
I71
sba(iMAP.tile
Tile
p3237
(dp3238
g4
I36
sg5
I39
sg6
I0
sg7
I71
sba(iMAP.tile
Tile
p3239
(dp3240
g4
I37
sg5
I39
sg6
I0
sg7
I71
sba(iMAP.tile
Tile
p3241
(dp3242
g4
I38
sg5
I39
sg6
I0
sg7
I71
sba(iMAP.tile
Tile
p3243
(dp3244
g4
I39
sg5
I39
sg6
I0
sg7
I71
sbaaI5
(I20
I39
tp3245
(I19
I9
tp3246
(I19
I38
tp3247
(dp3248
(dp3249
(I30
I20
tp3250
(lp3251
(I12
I1
tp3252
as(I9
I24
tp3253
(lp3254
(I12
I1
tp3255
as(lp3256
tp3257
.