((lp0
(lp1
I8
aI8
aI8
aI8
aI8
aI8
aI8
aI8
aI8
aI8
aI8
aI8
aI8
aI8
aI8
aI8
aI8
aI8
aI8
aI8
aI8
aI8
aI8
aI28
aI8
aI8
aI8
aI8
aI8
aI8
aI8
aI8
aI8
aI8
aI8
aI8
aI8
aI8
aI8
aI8
aa(lp2
I8
aI8
aI8
aI8
aI8
aI8
aI8
aI8
aI8
aI8
aI8
aI8
aI8
aI84
aI8
aI84
aI8
aI84
aI8
aI84
aI8
aI8
aI28
aI121
aI28
aI8
aI8
aI84
aI8
aI84
aI8
aI84
aI8
aI84
aI8
aI8
aI8
aI8
aI8
aI8
aa(lp3
I8
aI8
aI8
aI8
aI8
aI8
aI8
aI8
aI8
aI8
aI8
aI8
aI8
aI40
aI30
aI27
aI30
aI30
aI30
aI27
aI27
aI8
aI31
aI3
aI31
aI8
aI40
aI27
aI30
aI30
aI30
aI27
aI30
aI27
aI8
aI8
aI8
aI8
aI8
aI8
aa(lp4
I8
aI8
aI8
aI8
aI8
aI8
aI8
aI8
aI8
aI8
aI8
aI8
aI8
aI31
aI5
aI31
aI5
aI5
aI5
aI31
aI51
aI30
aI27
aI3
aI31
aI30
aI75
aI31
aI5
aI5
aI5
aI31
aI5
aI31
aI8
aI8
aI8
aI8
aI8
aI8
aa(lp5
I8
aI8
aI8
aI8
aI8
aI8
aI8
aI8
aI8
aI8
aI8
aI8
aI40
aI75
aI5
aI31
aI5
aI5
aI5
aI31
aI5
aI5
aI31
aI5
aI31
aI5
aI5
aI31
aI5
aI5
aI5
aI31
aI5
aI51
aI27
aI8
aI8
aI8
aI8
aI8
aa(lp6
I8
aI8
aI8
aI8
aI8
aI8
aI8
aI8
aI8
aI8
aI8
aI8
aI31
aI5
aI5
aI31
aI5
aI5
aI5
aI31
aI5
aI5
aI31
aI5
aI31
aI5
aI5
aI31
aI5
aI5
aI5
aI31
aI5
aI5
aI31
aI8
aI8
aI8
aI8
aI8
aa(lp7
I8
aI8
aI8
aI8
aI8
aI8
aI8
aI8
aI8
aI8
aI8
aI8
aI31
aI5
aI5
aI31
aI5
aI5
aI5
aI31
aI5
aI5
aI31
aI5
aI31
aI5
aI5
aI31
aI5
aI5
aI5
aI31
aI5
aI5
aI31
aI8
aI8
aI8
aI8
aI8
aa(lp8
I8
aI8
aI8
aI8
aI8
aI8
aI8
aI8
aI8
aI8
aI8
aI8
aI31
aI5
aI5
aI31
aI5
aI5
aI5
aI31
aI5
aI5
aI31
aI5
aI31
aI5
aI5
aI31
aI5
aI5
aI5
aI31
aI5
aI5
aI31
aI8
aI8
aI8
aI8
aI8
aa(lp9
I8
aI8
aI8
aI8
aI8
aI8
aI8
aI8
aI8
aI8
aI8
aI8
aI31
aI38
aI39
aI28
aI39
aI38
aI39
aI28
aI39
aI38
aI75
aI5
aI51
aI38
aI39
aI30
aI39
aI38
aI39
aI30
aI39
aI38
aI27
aI8
aI8
aI8
aI8
aI8
aa(lp10
I8
aI8
aI8
aI8
aI8
aI8
aI8
aI8
aI8
aI8
aI8
aI8
aI31
aI5
aI5
aI5
aI5
aI5
aI5
aI5
aI5
aI5
aI5
aI38
aI5
aI5
aI5
aI5
aI5
aI5
aI5
aI5
aI5
aI5
aI31
aI8
aI8
aI8
aI8
aI8
aa(lp11
I8
aI8
aI8
aI8
aI8
aI8
aI8
aI8
aI8
aI8
aI8
aI8
aI31
aI5
aI30
aI30
aI30
aI30
aI30
aI30
aI30
aI30
aI27
aI5
aI40
aI30
aI30
aI30
aI30
aI30
aI30
aI30
aI30
aI5
aI31
aI8
aI8
aI8
aI8
aI8
aa(lp12
I8
aI8
aI8
aI8
aI8
aI8
aI8
aI8
aI8
aI8
aI8
aI8
aI31
aI5
aI5
aI5
aI5
aI5
aI5
aI5
aI5
aI5
aI31
aI5
aI31
aI5
aI5
aI5
aI5
aI5
aI5
aI5
aI5
aI5
aI31
aI8
aI8
aI8
aI8
aI8
aa(lp13
I8
aI8
aI8
aI8
aI8
aI8
aI8
aI8
aI8
aI8
aI8
aI8
aI31
aI30
aI30
aI30
aI27
aI38
aI38
aI27
aI30
aI30
aI27
aI5
aI31
aI30
aI30
aI27
aI38
aI38
aI27
aI30
aI30
aI30
aI27
aI8
aI8
aI8
aI8
aI8
aa(lp14
I8
aI8
aI8
aI8
aI8
aI8
aI8
aI8
aI8
aI8
aI8
aI8
aI31
aI5
aI5
aI5
aI31
aI5
aI5
aI31
aI5
aI5
aI31
aI5
aI31
aI5
aI5
aI31
aI5
aI5
aI31
aI5
aI5
aI5
aI31
aI8
aI8
aI8
aI8
aI8
aa(lp15
I8
aI8
aI8
aI8
aI8
aI8
aI8
aI8
aI8
aI8
aI8
aI8
aI31
aI5
aI5
aI5
aI81
aI5
aI5
aI81
aI5
aI5
aI31
aI5
aI31
aI5
aI5
aI81
aI5
aI5
aI81
aI5
aI5
aI5
aI31
aI8
aI8
aI8
aI8
aI8
aa(lp16
I8
aI8
aI8
aI8
aI8
aI8
aI8
aI8
aI8
aI8
aI8
aI8
aI31
aI5
aI5
aI5
aI80
aI5
aI5
aI80
aI5
aI5
aI31
aI5
aI31
aI5
aI5
aI80
aI5
aI5
aI80
aI5
aI5
aI5
aI31
aI8
aI8
aI8
aI8
aI8
aa(lp17
I8
aI8
aI8
aI8
aI8
aI8
aI8
aI8
aI8
aI8
aI8
aI8
aI31
aI30
aI30
aI30
aI27
aI5
aI5
aI31
aI30
aI30
aI27
aI5
aI31
aI30
aI30
aI27
aI5
aI5
aI31
aI30
aI30
aI30
aI27
aI8
aI8
aI8
aI8
aI8
aa(lp18
I8
aI8
aI8
aI8
aI8
aI8
aI8
aI8
aI8
aI8
aI8
aI8
aI31
aI5
aI5
aI5
aI80
aI5
aI5
aI80
aI5
aI5
aI31
aI5
aI31
aI5
aI5
aI80
aI5
aI5
aI80
aI5
aI5
aI5
aI31
aI8
aI8
aI8
aI8
aI8
aa(lp19
I8
aI8
aI8
aI8
aI8
aI8
aI8
aI8
aI8
aI8
aI8
aI8
aI31
aI5
aI5
aI5
aI81
aI5
aI5
aI81
aI5
aI5
aI31
aI5
aI31
aI5
aI5
aI81
aI5
aI5
aI81
aI5
aI5
aI5
aI31
aI8
aI8
aI8
aI8
aI8
aa(lp20
I8
aI8
aI8
aI8
aI8
aI8
aI8
aI8
aI8
aI8
aI8
aI8
aI51
aI30
aI30
aI27
aI31
aI5
aI5
aI31
aI5
aI5
aI31
aI5
aI31
aI5
aI5
aI31
aI5
aI5
aI31
aI40
aI30
aI30
aI75
aI8
aI8
aI8
aI8
aI8
aa(lp21
I8
aI8
aI8
aI8
aI8
aI8
aI8
aI8
aI8
aI8
aI8
aI8
aI8
aI8
aI8
aI51
aI27
aI5
aI5
aI31
aI5
aI40
aI75
aI5
aI51
aI27
aI5
aI31
aI5
aI5
aI31
aI75
aI8
aI8
aI8
aI8
aI8
aI8
aI8
aI8
aa(lp22
I8
aI8
aI8
aI8
aI8
aI8
aI8
aI8
aI8
aI8
aI8
aI8
aI8
aI8
aI8
aI8
aI51
aI27
aI5
aI31
aI40
aI75
aI8
aI4
aI8
aI51
aI27
aI31
aI5
aI40
aI75
aI8
aI8
aI8
aI8
aI8
aI8
aI8
aI8
aI8
aa(lp23
I8
aI8
aI8
aI8
aI8
aI8
aI8
aI8
aI8
aI8
aI8
aI8
aI8
aI8
aI8
aI8
aI8
aI51
aI39
aI30
aI75
aI8
aI8
aI4
aI8
aI8
aI51
aI30
aI39
aI75
aI8
aI8
aI8
aI8
aI8
aI8
aI8
aI8
aI8
aI8
aa(lp24
I8
aI8
aI8
aI8
aI8
aI8
aI8
aI8
aI8
aI8
aI8
aI8
aI8
aI8
aI8
aI8
aI8
aI8
aI8
aI8
aI8
aI8
aI8
aI4
aI8
aI8
aI8
aI8
aI8
aI8
aI8
aI8
aI8
aI8
aI8
aI8
aI8
aI8
aI8
aI8
aa(lp25
I78
aI78
aI78
aI78
aI78
aI78
aI78
aI78
aI78
aI78
aI78
aI78
aI78
aI78
aI78
aI78
aI78
aI78
aI78
aI78
aI78
aI78
aI78
aI4
aI78
aI78
aI78
aI78
aI78
aI78
aI78
aI78
aI78
aI78
aI78
aI78
aI78
aI78
aI78
aI78
aa(lp26
I71
aI71
aI71
aI71
aI71
aI71
aI71
aI71
aI71
aI71
aI71
aI71
aI71
aI71
aI71
aI71
aI71
aI71
aI71
aI71
aI71
aI71
aI71
aI4
aI71
aI71
aI71
aI71
aI71
aI71
aI71
aI71
aI71
aI71
aI71
aI71
aI71
aI71
aI71
aI71
aa(lp27
I71
aI71
aI71
aI71
aI71
aI71
aI71
aI71
aI71
aI71
aI71
aI71
aI71
aI71
aI71
aI71
aI71
aI71
aI71
aI71
aI71
aI71
aI71
aI4
aI71
aI71
aI71
aI71
aI71
aI71
aI71
aI71
aI71
aI71
aI71
aI71
aI71
aI71
aI71
aI71
aa(lp28
I71
aI71
aI71
aI71
aI71
aI71
aI71
aI71
aI71
aI71
aI71
aI71
aI71
aI71
aI71
aI71
aI71
aI71
aI71
aI71
aI71
aI71
aI71
aI4
aI71
aI71
aI71
aI71
aI71
aI71
aI71
aI71
aI71
aI71
aI71
aI71
aI71
aI71
aI71
aI71
aa(lp29
I71
aI71
aI71
aI71
aI71
aI71
aI71
aI71
aI71
aI71
aI71
aI71
aI71
aI71
aI71
aI71
aI71
aI71
aI71
aI71
aI71
aI71
aI71
aI4
aI71
aI71
aI71
aI71
aI71
aI71
aI71
aI71
aI71
aI71
aI71
aI71
aI71
aI71
aI71
aI71
aa(lp30
I71
aI71
aI71
aI71
aI71
aI71
aI71
aI71
aI71
aI71
aI71
aI71
aI71
aI71
aI71
aI71
aI71
aI71
aI71
aI71
aI71
aI71
aI71
aI4
aI71
aI71
aI71
aI71
aI71
aI71
aI71
aI71
aI71
aI71
aI71
aI71
aI71
aI71
aI71
aI71
aa(lp31
I71
aI71
aI71
aI71
aI71
aI71
aI71
aI71
aI71
aI71
aI71
aI71
aI71
aI71
aI71
aI71
aI71
aI71
aI71
aI71
aI71
aI71
aI71
aI4
aI71
aI71
aI71
aI71
aI71
aI71
aI71
aI71
aI71
aI71
aI71
aI71
aI71
aI71
aI71
aI71
aa(lp32
I79
aI79
aI79
aI79
aI79
aI79
aI79
aI79
aI79
aI79
aI79
aI79
aI79
aI79
aI79
aI79
aI79
aI79
aI79
aI79
aI79
aI79
aI79
aI4
aI79
aI79
aI79
aI79
aI79
aI79
aI79
aI79
aI79
aI79
aI79
aI79
aI79
aI79
aI79
aI79
aa(lp33
I8
aI8
aI8
aI8
aI8
aI8
aI8
aI8
aI8
aI8
aI8
aI8
aI8
aI8
aI8
aI8
aI8
aI8
aI8
aI8
aI8
aI8
aI8
aI4
aI8
aI8
aI8
aI8
aI8
aI8
aI8
aI8
aI8
aI8
aI8
aI8
aI8
aI8
aI8
aI8
aa(lp34
I8
aI8
aI8
aI8
aI8
aI8
aI8
aI8
aI8
aI8
aI8
aI8
aI8
aI8
aI8
aI8
aI8
aI8
aI8
aI8
aI8
aI8
aI8
aI4
aI8
aI8
aI8
aI8
aI8
aI8
aI8
aI8
aI8
aI8
aI8
aI8
aI8
aI8
aI8
aI8
aa(lp35
I8
aI8
aI8
aI8
aI8
aI8
aI8
aI8
aI8
aI8
aI8
aI8
aI8
aI8
aI8
aI8
aI8
aI8
aI8
aI8
aI8
aI8
aI8
aI4
aI8
aI8
aI8
aI8
aI8
aI8
aI8
aI8
aI8
aI8
aI8
aI8
aI8
aI8
aI8
aI8
aa(lp36
I8
aI8
aI8
aI8
aI8
aI8
aI8
aI8
aI8
aI8
aI8
aI8
aI8
aI8
aI8
aI8
aI8
aI8
aI8
aI8
aI8
aI8
aI8
aI4
aI8
aI8
aI8
aI8
aI8
aI8
aI8
aI8
aI8
aI8
aI8
aI8
aI8
aI8
aI8
aI8
aa(lp37
I8
aI8
aI8
aI8
aI8
aI8
aI8
aI8
aI8
aI8
aI8
aI8
aI8
aI8
aI8
aI8
aI8
aI8
aI8
aI8
aI8
aI8
aI8
aI4
aI8
aI8
aI8
aI8
aI8
aI8
aI8
aI8
aI8
aI8
aI8
aI8
aI8
aI8
aI8
aI8
aa(lp38
I8
aI8
aI8
aI8
aI8
aI8
aI8
aI8
aI8
aI8
aI8
aI8
aI8
aI8
aI8
aI8
aI8
aI8
aI8
aI8
aI8
aI8
aI8
aI4
aI8
aI8
aI8
aI8
aI8
aI8
aI8
aI8
aI8
aI8
aI8
aI8
aI8
aI8
aI8
aI8
aa(lp39
I8
aI8
aI8
aI8
aI8
aI8
aI8
aI8
aI8
aI8
aI8
aI8
aI8
aI8
aI8
aI8
aI8
aI8
aI8
aI8
aI8
aI8
aI8
aI4
aI8
aI8
aI8
aI8
aI8
aI8
aI8
aI8
aI8
aI8
aI8
aI8
aI8
aI8
aI8
aI8
aa(lp40
I8
aI8
aI8
aI8
aI8
aI8
aI8
aI8
aI8
aI8
aI8
aI8
aI8
aI8
aI8
aI8
aI8
aI8
aI8
aI8
aI8
aI8
aI8
aI120
aI8
aI8
aI8
aI8
aI8
aI8
aI8
aI8
aI8
aI8
aI8
aI8
aI8
aI8
aI8
aI8
aaI5
(I23
I39
tp41
(I23
I1
tp42
(I23
I35
tp43
(dp44
(I20
I20
tp45
(lp46
(I4
I1
tp47
as(I12
I20
tp48
(lp49
g47
astp50
.