((lp0
(lp1
(iMAP.tile
Tile
p2
(dp3
S'y'
p4
I0
sS'x'
p5
I0
sS'bg'
p6
I0
sS'fg'
p7
I52
sba(iMAP.tile
Tile
p8
(dp9
g4
I1
sg5
I0
sg6
I0
sg7
I52
sba(iMAP.tile
Tile
p10
(dp11
g4
I2
sg5
I0
sg6
I0
sg7
I52
sba(iMAP.tile
Tile
p12
(dp13
g4
I3
sg5
I0
sg6
I0
sg7
I52
sba(iMAP.tile
Tile
p14
(dp15
g4
I4
sg5
I0
sg6
I0
sg7
I52
sba(iMAP.tile
Tile
p16
(dp17
g4
I5
sg5
I0
sg6
I0
sg7
I52
sba(iMAP.tile
Tile
p18
(dp19
g4
I6
sg5
I0
sg6
I0
sg7
I52
sba(iMAP.tile
Tile
p20
(dp21
g4
I7
sg5
I0
sg6
I0
sg7
I52
sba(iMAP.tile
Tile
p22
(dp23
g4
I8
sg5
I0
sg6
I0
sg7
I52
sba(iMAP.tile
Tile
p24
(dp25
g4
I9
sg5
I0
sg6
I0
sg7
I52
sba(iMAP.tile
Tile
p26
(dp27
g4
I10
sg5
I0
sg6
I0
sg7
I52
sba(iMAP.tile
Tile
p28
(dp29
g4
I11
sg5
I0
sg6
I0
sg7
I52
sba(iMAP.tile
Tile
p30
(dp31
g4
I12
sg5
I0
sg6
I0
sg7
I52
sba(iMAP.tile
Tile
p32
(dp33
g4
I13
sg5
I0
sg6
I0
sg7
I52
sba(iMAP.tile
Tile
p34
(dp35
g4
I14
sg5
I0
sg6
I0
sg7
I52
sba(iMAP.tile
Tile
p36
(dp37
g4
I15
sg5
I0
sg6
I0
sg7
I52
sba(iMAP.tile
Tile
p38
(dp39
g4
I16
sg5
I0
sg6
I0
sg7
I52
sba(iMAP.tile
Tile
p40
(dp41
g4
I17
sg5
I0
sg6
I0
sg7
I52
sba(iMAP.tile
Tile
p42
(dp43
g4
I18
sg5
I0
sg6
I0
sg7
I52
sba(iMAP.tile
Tile
p44
(dp45
g4
I19
sg5
I0
sg6
I0
sg7
I52
sba(iMAP.tile
Tile
p46
(dp47
g4
I20
sg5
I0
sg6
I0
sg7
I52
sbaa(lp48
(iMAP.tile
Tile
p49
(dp50
g4
I0
sg5
I1
sg6
I0
sg7
I12
sba(iMAP.tile
Tile
p51
(dp52
g4
I1
sg5
I1
sg6
I0
sg7
I12
sba(iMAP.tile
Tile
p53
(dp54
g4
I2
sg5
I1
sg6
I0
sg7
I29
sba(iMAP.tile
Tile
p55
(dp56
g4
I3
sg5
I1
sg6
I0
sg7
I29
sba(iMAP.tile
Tile
p57
(dp58
g4
I4
sg5
I1
sg6
I0
sg7
I29
sba(iMAP.tile
Tile
p59
(dp60
g4
I5
sg5
I1
sg6
I0
sg7
I29
sba(iMAP.tile
Tile
p61
(dp62
g4
I6
sg5
I1
sg6
I0
sg7
I12
sba(iMAP.tile
Tile
p63
(dp64
g4
I7
sg5
I1
sg6
I0
sg7
I12
sba(iMAP.tile
Tile
p65
(dp66
g4
I8
sg5
I1
sg6
I0
sg7
I12
sba(iMAP.tile
Tile
p67
(dp68
g4
I9
sg5
I1
sg6
I0
sg7
I52
sba(iMAP.tile
Tile
p69
(dp70
g4
I10
sg5
I1
sg6
I0
sg7
I52
sba(iMAP.tile
Tile
p71
(dp72
g4
I11
sg5
I1
sg6
I0
sg7
I52
sba(iMAP.tile
Tile
p73
(dp74
g4
I12
sg5
I1
sg6
I0
sg7
I52
sba(iMAP.tile
Tile
p75
(dp76
g4
I13
sg5
I1
sg6
I0
sg7
I52
sba(iMAP.tile
Tile
p77
(dp78
g4
I14
sg5
I1
sg6
I0
sg7
I52
sba(iMAP.tile
Tile
p79
(dp80
g4
I15
sg5
I1
sg6
I0
sg7
I52
sba(iMAP.tile
Tile
p81
(dp82
g4
I16
sg5
I1
sg6
I0
sg7
I52
sba(iMAP.tile
Tile
p83
(dp84
g4
I17
sg5
I1
sg6
I0
sg7
I52
sba(iMAP.tile
Tile
p85
(dp86
g4
I18
sg5
I1
sg6
I0
sg7
I52
sba(iMAP.tile
Tile
p87
(dp88
g4
I19
sg5
I1
sg6
I0
sg7
I52
sba(iMAP.tile
Tile
p89
(dp90
g4
I20
sg5
I1
sg6
I0
sg7
I52
sbaa(lp91
(iMAP.tile
Tile
p92
(dp93
g4
I0
sg5
I2
sg6
I0
sg7
I12
sba(iMAP.tile
Tile
p94
(dp95
g4
I1
sg5
I2
sg6
I0
sg7
I12
sba(iMAP.tile
Tile
p96
(dp97
g4
I2
sg5
I2
sg6
I0
sg7
I12
sba(iMAP.tile
Tile
p98
(dp99
g4
I3
sg5
I2
sg6
I0
sg7
I28
sba(iMAP.tile
Tile
p100
(dp101
g4
I4
sg5
I2
sg6
I0
sg7
I28
sba(iMAP.tile
Tile
p102
(dp103
g4
I5
sg5
I2
sg6
I0
sg7
I28
sba(iMAP.tile
Tile
p104
(dp105
g4
I6
sg5
I2
sg6
I0
sg7
I12
sba(iMAP.tile
Tile
p106
(dp107
g4
I7
sg5
I2
sg6
I0
sg7
I12
sba(iMAP.tile
Tile
p108
(dp109
g4
I8
sg5
I2
sg6
I0
sg7
I12
sba(iMAP.tile
Tile
p110
(dp111
g4
I9
sg5
I2
sg6
I0
sg7
I52
sba(iMAP.tile
Tile
p112
(dp113
g4
I10
sg5
I2
sg6
I0
sg7
I52
sba(iMAP.tile
Tile
p114
(dp115
g4
I11
sg5
I2
sg6
I0
sg7
I52
sba(iMAP.tile
Tile
p116
(dp117
g4
I12
sg5
I2
sg6
I0
sg7
I52
sba(iMAP.tile
Tile
p118
(dp119
g4
I13
sg5
I2
sg6
I0
sg7
I52
sba(iMAP.tile
Tile
p120
(dp121
g4
I14
sg5
I2
sg6
I0
sg7
I52
sba(iMAP.tile
Tile
p122
(dp123
g4
I15
sg5
I2
sg6
I0
sg7
I52
sba(iMAP.tile
Tile
p124
(dp125
g4
I16
sg5
I2
sg6
I0
sg7
I52
sba(iMAP.tile
Tile
p126
(dp127
g4
I17
sg5
I2
sg6
I0
sg7
I52
sba(iMAP.tile
Tile
p128
(dp129
g4
I18
sg5
I2
sg6
I0
sg7
I52
sba(iMAP.tile
Tile
p130
(dp131
g4
I19
sg5
I2
sg6
I0
sg7
I52
sba(iMAP.tile
Tile
p132
(dp133
g4
I20
sg5
I2
sg6
I0
sg7
I52
sbaa(lp134
(iMAP.tile
Tile
p135
(dp136
g4
I0
sg5
I3
sg6
I0
sg7
I12
sba(iMAP.tile
Tile
p137
(dp138
g4
I1
sg5
I3
sg6
I0
sg7
I12
sba(iMAP.tile
Tile
p139
(dp140
g4
I2
sg5
I3
sg6
I0
sg7
I29
sba(iMAP.tile
Tile
p141
(dp142
g4
I3
sg5
I3
sg6
I0
sg7
I28
sba(iMAP.tile
Tile
p143
(dp144
g4
I4
sg5
I3
sg6
I0
sg7
I32
sba(iMAP.tile
Tile
p145
(dp146
g4
I5
sg5
I3
sg6
I0
sg7
I35
sba(iMAP.tile
Tile
p147
(dp148
g4
I6
sg5
I3
sg6
I0
sg7
I8
sba(iMAP.tile
Tile
p149
(dp150
g4
I7
sg5
I3
sg6
I0
sg7
I8
sba(iMAP.tile
Tile
p151
(dp152
g4
I8
sg5
I3
sg6
I0
sg7
I12
sba(iMAP.tile
Tile
p153
(dp154
g4
I9
sg5
I3
sg6
I0
sg7
I52
sba(iMAP.tile
Tile
p155
(dp156
g4
I10
sg5
I3
sg6
I0
sg7
I52
sba(iMAP.tile
Tile
p157
(dp158
g4
I11
sg5
I3
sg6
I0
sg7
I52
sba(iMAP.tile
Tile
p159
(dp160
g4
I12
sg5
I3
sg6
I0
sg7
I52
sba(iMAP.tile
Tile
p161
(dp162
g4
I13
sg5
I3
sg6
I0
sg7
I52
sba(iMAP.tile
Tile
p163
(dp164
g4
I14
sg5
I3
sg6
I0
sg7
I52
sba(iMAP.tile
Tile
p165
(dp166
g4
I15
sg5
I3
sg6
I0
sg7
I52
sba(iMAP.tile
Tile
p167
(dp168
g4
I16
sg5
I3
sg6
I0
sg7
I52
sba(iMAP.tile
Tile
p169
(dp170
g4
I17
sg5
I3
sg6
I0
sg7
I52
sba(iMAP.tile
Tile
p171
(dp172
g4
I18
sg5
I3
sg6
I0
sg7
I52
sba(iMAP.tile
Tile
p173
(dp174
g4
I19
sg5
I3
sg6
I0
sg7
I52
sba(iMAP.tile
Tile
p175
(dp176
g4
I20
sg5
I3
sg6
I0
sg7
I52
sbaa(lp177
(iMAP.tile
Tile
p178
(dp179
g4
I0
sg5
I4
sg6
I0
sg7
I12
sba(iMAP.tile
Tile
p180
(dp181
g4
I1
sg5
I4
sg6
I0
sg7
I12
sba(iMAP.tile
Tile
p182
(dp183
g4
I2
sg5
I4
sg6
I0
sg7
I12
sba(iMAP.tile
Tile
p184
(dp185
g4
I3
sg5
I4
sg6
I0
sg7
I28
sba(iMAP.tile
Tile
p186
(dp187
g4
I4
sg5
I4
sg6
I0
sg7
I33
sba(iMAP.tile
Tile
p188
(dp189
g4
I5
sg5
I4
sg6
I0
sg7
I120
sba(iMAP.tile
Tile
p190
(dp191
g4
I6
sg5
I4
sg6
I0
sg7
I8
sba(iMAP.tile
Tile
p192
(dp193
g4
I7
sg5
I4
sg6
I0
sg7
I8
sba(iMAP.tile
Tile
p194
(dp195
g4
I8
sg5
I4
sg6
I0
sg7
I12
sba(iMAP.tile
Tile
p196
(dp197
g4
I9
sg5
I4
sg6
I0
sg7
I52
sba(iMAP.tile
Tile
p198
(dp199
g4
I10
sg5
I4
sg6
I0
sg7
I52
sba(iMAP.tile
Tile
p200
(dp201
g4
I11
sg5
I4
sg6
I0
sg7
I52
sba(iMAP.tile
Tile
p202
(dp203
g4
I12
sg5
I4
sg6
I0
sg7
I52
sba(iMAP.tile
Tile
p204
(dp205
g4
I13
sg5
I4
sg6
I0
sg7
I52
sba(iMAP.tile
Tile
p206
(dp207
g4
I14
sg5
I4
sg6
I0
sg7
I52
sba(iMAP.tile
Tile
p208
(dp209
g4
I15
sg5
I4
sg6
I0
sg7
I52
sba(iMAP.tile
Tile
p210
(dp211
g4
I16
sg5
I4
sg6
I0
sg7
I52
sba(iMAP.tile
Tile
p212
(dp213
g4
I17
sg5
I4
sg6
I0
sg7
I52
sba(iMAP.tile
Tile
p214
(dp215
g4
I18
sg5
I4
sg6
I0
sg7
I52
sba(iMAP.tile
Tile
p216
(dp217
g4
I19
sg5
I4
sg6
I0
sg7
I52
sba(iMAP.tile
Tile
p218
(dp219
g4
I20
sg5
I4
sg6
I0
sg7
I52
sbaa(lp220
(iMAP.tile
Tile
p221
(dp222
g4
I0
sg5
I5
sg6
I0
sg7
I12
sba(iMAP.tile
Tile
p223
(dp224
g4
I1
sg5
I5
sg6
I0
sg7
I12
sba(iMAP.tile
Tile
p225
(dp226
g4
I2
sg5
I5
sg6
I0
sg7
I29
sba(iMAP.tile
Tile
p227
(dp228
g4
I3
sg5
I5
sg6
I0
sg7
I28
sba(iMAP.tile
Tile
p229
(dp230
g4
I4
sg5
I5
sg6
I0
sg7
I34
sba(iMAP.tile
Tile
p231
(dp232
g4
I5
sg5
I5
sg6
I0
sg7
I37
sba(iMAP.tile
Tile
p233
(dp234
g4
I6
sg5
I5
sg6
I0
sg7
I8
sba(iMAP.tile
Tile
p235
(dp236
g4
I7
sg5
I5
sg6
I0
sg7
I8
sba(iMAP.tile
Tile
p237
(dp238
g4
I8
sg5
I5
sg6
I0
sg7
I12
sba(iMAP.tile
Tile
p239
(dp240
g4
I9
sg5
I5
sg6
I0
sg7
I52
sba(iMAP.tile
Tile
p241
(dp242
g4
I10
sg5
I5
sg6
I0
sg7
I52
sba(iMAP.tile
Tile
p243
(dp244
g4
I11
sg5
I5
sg6
I0
sg7
I52
sba(iMAP.tile
Tile
p245
(dp246
g4
I12
sg5
I5
sg6
I0
sg7
I52
sba(iMAP.tile
Tile
p247
(dp248
g4
I13
sg5
I5
sg6
I0
sg7
I52
sba(iMAP.tile
Tile
p249
(dp250
g4
I14
sg5
I5
sg6
I0
sg7
I52
sba(iMAP.tile
Tile
p251
(dp252
g4
I15
sg5
I5
sg6
I0
sg7
I52
sba(iMAP.tile
Tile
p253
(dp254
g4
I16
sg5
I5
sg6
I0
sg7
I52
sba(iMAP.tile
Tile
p255
(dp256
g4
I17
sg5
I5
sg6
I0
sg7
I52
sba(iMAP.tile
Tile
p257
(dp258
g4
I18
sg5
I5
sg6
I0
sg7
I52
sba(iMAP.tile
Tile
p259
(dp260
g4
I19
sg5
I5
sg6
I0
sg7
I52
sba(iMAP.tile
Tile
p261
(dp262
g4
I20
sg5
I5
sg6
I0
sg7
I12
sbaa(lp263
(iMAP.tile
Tile
p264
(dp265
g4
I0
sg5
I6
sg6
I0
sg7
I12
sba(iMAP.tile
Tile
p266
(dp267
g4
I1
sg5
I6
sg6
I0
sg7
I12
sba(iMAP.tile
Tile
p268
(dp269
g4
I2
sg5
I6
sg6
I0
sg7
I12
sba(iMAP.tile
Tile
p270
(dp271
g4
I3
sg5
I6
sg6
I0
sg7
I28
sba(iMAP.tile
Tile
p272
(dp273
g4
I4
sg5
I6
sg6
I0
sg7
I28
sba(iMAP.tile
Tile
p274
(dp275
g4
I5
sg5
I6
sg6
I0
sg7
I28
sba(iMAP.tile
Tile
p276
(dp277
g4
I6
sg5
I6
sg6
I0
sg7
I12
sba(iMAP.tile
Tile
p278
(dp279
g4
I7
sg5
I6
sg6
I0
sg7
I8
sba(iMAP.tile
Tile
p280
(dp281
g4
I8
sg5
I6
sg6
I0
sg7
I12
sba(iMAP.tile
Tile
p282
(dp283
g4
I9
sg5
I6
sg6
I0
sg7
I52
sba(iMAP.tile
Tile
p284
(dp285
g4
I10
sg5
I6
sg6
I0
sg7
I52
sba(iMAP.tile
Tile
p286
(dp287
g4
I11
sg5
I6
sg6
I0
sg7
I52
sba(iMAP.tile
Tile
p288
(dp289
g4
I12
sg5
I6
sg6
I0
sg7
I52
sba(iMAP.tile
Tile
p290
(dp291
g4
I13
sg5
I6
sg6
I0
sg7
I52
sba(iMAP.tile
Tile
p292
(dp293
g4
I14
sg5
I6
sg6
I0
sg7
I52
sba(iMAP.tile
Tile
p294
(dp295
g4
I15
sg5
I6
sg6
I0
sg7
I12
sba(iMAP.tile
Tile
p296
(dp297
g4
I16
sg5
I6
sg6
I0
sg7
I52
sba(iMAP.tile
Tile
p298
(dp299
g4
I17
sg5
I6
sg6
I0
sg7
I52
sba(iMAP.tile
Tile
p300
(dp301
g4
I18
sg5
I6
sg6
I0
sg7
I52
sba(iMAP.tile
Tile
p302
(dp303
g4
I19
sg5
I6
sg6
I0
sg7
I12
sba(iMAP.tile
Tile
p304
(dp305
g4
I20
sg5
I6
sg6
I0
sg7
I12
sbaa(lp306
(iMAP.tile
Tile
p307
(dp308
g4
I0
sg5
I7
sg6
I0
sg7
I12
sba(iMAP.tile
Tile
p309
(dp310
g4
I1
sg5
I7
sg6
I0
sg7
I12
sba(iMAP.tile
Tile
p311
(dp312
g4
I2
sg5
I7
sg6
I0
sg7
I29
sba(iMAP.tile
Tile
p313
(dp314
g4
I3
sg5
I7
sg6
I0
sg7
I29
sba(iMAP.tile
Tile
p315
(dp316
g4
I4
sg5
I7
sg6
I0
sg7
I29
sba(iMAP.tile
Tile
p317
(dp318
g4
I5
sg5
I7
sg6
I0
sg7
I29
sba(iMAP.tile
Tile
p319
(dp320
g4
I6
sg5
I7
sg6
I0
sg7
I12
sba(iMAP.tile
Tile
p321
(dp322
g4
I7
sg5
I7
sg6
I0
sg7
I8
sba(iMAP.tile
Tile
p323
(dp324
g4
I8
sg5
I7
sg6
I0
sg7
I12
sba(iMAP.tile
Tile
p325
(dp326
g4
I9
sg5
I7
sg6
I0
sg7
I52
sba(iMAP.tile
Tile
p327
(dp328
g4
I10
sg5
I7
sg6
I0
sg7
I52
sba(iMAP.tile
Tile
p329
(dp330
g4
I11
sg5
I7
sg6
I0
sg7
I52
sba(iMAP.tile
Tile
p331
(dp332
g4
I12
sg5
I7
sg6
I0
sg7
I52
sba(iMAP.tile
Tile
p333
(dp334
g4
I13
sg5
I7
sg6
I0
sg7
I52
sba(iMAP.tile
Tile
p335
(dp336
g4
I14
sg5
I7
sg6
I0
sg7
I12
sba(iMAP.tile
Tile
p337
(dp338
g4
I15
sg5
I7
sg6
I0
sg7
I12
sba(iMAP.tile
Tile
p339
(dp340
g4
I16
sg5
I7
sg6
I0
sg7
I12
sba(iMAP.tile
Tile
p341
(dp342
g4
I17
sg5
I7
sg6
I0
sg7
I12
sba(iMAP.tile
Tile
p343
(dp344
g4
I18
sg5
I7
sg6
I0
sg7
I12
sba(iMAP.tile
Tile
p345
(dp346
g4
I19
sg5
I7
sg6
I0
sg7
I12
sba(iMAP.tile
Tile
p347
(dp348
g4
I20
sg5
I7
sg6
I0
sg7
I12
sbaa(lp349
(iMAP.tile
Tile
p350
(dp351
g4
I0
sg5
I8
sg6
I0
sg7
I12
sba(iMAP.tile
Tile
p352
(dp353
g4
I1
sg5
I8
sg6
I0
sg7
I12
sba(iMAP.tile
Tile
p354
(dp355
g4
I2
sg5
I8
sg6
I0
sg7
I12
sba(iMAP.tile
Tile
p356
(dp357
g4
I3
sg5
I8
sg6
I0
sg7
I12
sba(iMAP.tile
Tile
p358
(dp359
g4
I4
sg5
I8
sg6
I0
sg7
I12
sba(iMAP.tile
Tile
p360
(dp361
g4
I5
sg5
I8
sg6
I0
sg7
I12
sba(iMAP.tile
Tile
p362
(dp363
g4
I6
sg5
I8
sg6
I0
sg7
I12
sba(iMAP.tile
Tile
p364
(dp365
g4
I7
sg5
I8
sg6
I0
sg7
I8
sba(iMAP.tile
Tile
p366
(dp367
g4
I8
sg5
I8
sg6
I0
sg7
I12
sba(iMAP.tile
Tile
p368
(dp369
g4
I9
sg5
I8
sg6
I0
sg7
I52
sba(iMAP.tile
Tile
p370
(dp371
g4
I10
sg5
I8
sg6
I0
sg7
I52
sba(iMAP.tile
Tile
p372
(dp373
g4
I11
sg5
I8
sg6
I0
sg7
I52
sba(iMAP.tile
Tile
p374
(dp375
g4
I12
sg5
I8
sg6
I0
sg7
I52
sba(iMAP.tile
Tile
p376
(dp377
g4
I13
sg5
I8
sg6
I0
sg7
I12
sba(iMAP.tile
Tile
p378
(dp379
g4
I14
sg5
I8
sg6
I0
sg7
I12
sba(iMAP.tile
Tile
p380
(dp381
g4
I15
sg5
I8
sg6
I0
sg7
I12
sba(iMAP.tile
Tile
p382
(dp383
g4
I16
sg5
I8
sg6
I0
sg7
I12
sba(iMAP.tile
Tile
p384
(dp385
g4
I17
sg5
I8
sg6
I0
sg7
I12
sba(iMAP.tile
Tile
p386
(dp387
g4
I18
sg5
I8
sg6
I0
sg7
I12
sba(iMAP.tile
Tile
p388
(dp389
g4
I19
sg5
I8
sg6
I0
sg7
I12
sba(iMAP.tile
Tile
p390
(dp391
g4
I20
sg5
I8
sg6
I0
sg7
I12
sbaa(lp392
(iMAP.tile
Tile
p393
(dp394
g4
I0
sg5
I9
sg6
I0
sg7
I12
sba(iMAP.tile
Tile
p395
(dp396
g4
I1
sg5
I9
sg6
I0
sg7
I12
sba(iMAP.tile
Tile
p397
(dp398
g4
I2
sg5
I9
sg6
I0
sg7
I12
sba(iMAP.tile
Tile
p399
(dp400
g4
I3
sg5
I9
sg6
I0
sg7
I12
sba(iMAP.tile
Tile
p401
(dp402
g4
I4
sg5
I9
sg6
I0
sg7
I12
sba(iMAP.tile
Tile
p403
(dp404
g4
I5
sg5
I9
sg6
I0
sg7
I12
sba(iMAP.tile
Tile
p405
(dp406
g4
I6
sg5
I9
sg6
I0
sg7
I12
sba(iMAP.tile
Tile
p407
(dp408
g4
I7
sg5
I9
sg6
I0
sg7
I8
sba(iMAP.tile
Tile
p409
(dp410
g4
I8
sg5
I9
sg6
I0
sg7
I12
sba(iMAP.tile
Tile
p411
(dp412
g4
I9
sg5
I9
sg6
I0
sg7
I52
sba(iMAP.tile
Tile
p413
(dp414
g4
I10
sg5
I9
sg6
I0
sg7
I52
sba(iMAP.tile
Tile
p415
(dp416
g4
I11
sg5
I9
sg6
I0
sg7
I52
sba(iMAP.tile
Tile
p417
(dp418
g4
I12
sg5
I9
sg6
I0
sg7
I12
sba(iMAP.tile
Tile
p419
(dp420
g4
I13
sg5
I9
sg6
I0
sg7
I12
sba(iMAP.tile
Tile
p421
(dp422
g4
I14
sg5
I9
sg6
I0
sg7
I12
sba(iMAP.tile
Tile
p423
(dp424
g4
I15
sg5
I9
sg6
I0
sg7
I12
sba(iMAP.tile
Tile
p425
(dp426
g4
I16
sg5
I9
sg6
I0
sg7
I12
sba(iMAP.tile
Tile
p427
(dp428
g4
I17
sg5
I9
sg6
I0
sg7
I12
sba(iMAP.tile
Tile
p429
(dp430
g4
I18
sg5
I9
sg6
I0
sg7
I12
sba(iMAP.tile
Tile
p431
(dp432
g4
I19
sg5
I9
sg6
I0
sg7
I12
sba(iMAP.tile
Tile
p433
(dp434
g4
I20
sg5
I9
sg6
I0
sg7
I12
sbaa(lp435
(iMAP.tile
Tile
p436
(dp437
g4
I0
sg5
I10
sg6
I0
sg7
I12
sba(iMAP.tile
Tile
p438
(dp439
g4
I1
sg5
I10
sg6
I0
sg7
I12
sba(iMAP.tile
Tile
p440
(dp441
g4
I2
sg5
I10
sg6
I0
sg7
I12
sba(iMAP.tile
Tile
p442
(dp443
g4
I3
sg5
I10
sg6
I0
sg7
I12
sba(iMAP.tile
Tile
p444
(dp445
g4
I4
sg5
I10
sg6
I0
sg7
I12
sba(iMAP.tile
Tile
p446
(dp447
g4
I5
sg5
I10
sg6
I0
sg7
I12
sba(iMAP.tile
Tile
p448
(dp449
g4
I6
sg5
I10
sg6
I0
sg7
I8
sba(iMAP.tile
Tile
p450
(dp451
g4
I7
sg5
I10
sg6
I0
sg7
I8
sba(iMAP.tile
Tile
p452
(dp453
g4
I8
sg5
I10
sg6
I0
sg7
I8
sba(iMAP.tile
Tile
p454
(dp455
g4
I9
sg5
I10
sg6
I0
sg7
I8
sba(iMAP.tile
Tile
p456
(dp457
g4
I10
sg5
I10
sg6
I0
sg7
I8
sba(iMAP.tile
Tile
p458
(dp459
g4
I11
sg5
I10
sg6
I0
sg7
I8
sba(iMAP.tile
Tile
p460
(dp461
g4
I12
sg5
I10
sg6
I0
sg7
I8
sba(iMAP.tile
Tile
p462
(dp463
g4
I13
sg5
I10
sg6
I0
sg7
I8
sba(iMAP.tile
Tile
p464
(dp465
g4
I14
sg5
I10
sg6
I0
sg7
I8
sba(iMAP.tile
Tile
p466
(dp467
g4
I15
sg5
I10
sg6
I0
sg7
I8
sba(iMAP.tile
Tile
p468
(dp469
g4
I16
sg5
I10
sg6
I0
sg7
I8
sba(iMAP.tile
Tile
p470
(dp471
g4
I17
sg5
I10
sg6
I0
sg7
I8
sba(iMAP.tile
Tile
p472
(dp473
g4
I18
sg5
I10
sg6
I0
sg7
I8
sba(iMAP.tile
Tile
p474
(dp475
g4
I19
sg5
I10
sg6
I0
sg7
I8
sba(iMAP.tile
Tile
p476
(dp477
g4
I20
sg5
I10
sg6
I0
sg7
I121
sbaa(lp478
(iMAP.tile
Tile
p479
(dp480
g4
I0
sg5
I11
sg6
I0
sg7
I12
sba(iMAP.tile
Tile
p481
(dp482
g4
I1
sg5
I11
sg6
I0
sg7
I12
sba(iMAP.tile
Tile
p483
(dp484
g4
I2
sg5
I11
sg6
I0
sg7
I12
sba(iMAP.tile
Tile
p485
(dp486
g4
I3
sg5
I11
sg6
I0
sg7
I12
sba(iMAP.tile
Tile
p487
(dp488
g4
I4
sg5
I11
sg6
I0
sg7
I12
sba(iMAP.tile
Tile
p489
(dp490
g4
I5
sg5
I11
sg6
I0
sg7
I12
sba(iMAP.tile
Tile
p491
(dp492
g4
I6
sg5
I11
sg6
I0
sg7
I12
sba(iMAP.tile
Tile
p493
(dp494
g4
I7
sg5
I11
sg6
I0
sg7
I12
sba(iMAP.tile
Tile
p495
(dp496
g4
I8
sg5
I11
sg6
I0
sg7
I12
sba(iMAP.tile
Tile
p497
(dp498
g4
I9
sg5
I11
sg6
I0
sg7
I12
sba(iMAP.tile
Tile
p499
(dp500
g4
I10
sg5
I11
sg6
I0
sg7
I12
sba(iMAP.tile
Tile
p501
(dp502
g4
I11
sg5
I11
sg6
I0
sg7
I12
sba(iMAP.tile
Tile
p503
(dp504
g4
I12
sg5
I11
sg6
I0
sg7
I13
sba(iMAP.tile
Tile
p505
(dp506
g4
I13
sg5
I11
sg6
I0
sg7
I13
sba(iMAP.tile
Tile
p507
(dp508
g4
I14
sg5
I11
sg6
I0
sg7
I8
sba(iMAP.tile
Tile
p509
(dp510
g4
I15
sg5
I11
sg6
I0
sg7
I13
sba(iMAP.tile
Tile
p511
(dp512
g4
I16
sg5
I11
sg6
I0
sg7
I13
sba(iMAP.tile
Tile
p513
(dp514
g4
I17
sg5
I11
sg6
I0
sg7
I12
sba(iMAP.tile
Tile
p515
(dp516
g4
I18
sg5
I11
sg6
I0
sg7
I12
sba(iMAP.tile
Tile
p517
(dp518
g4
I19
sg5
I11
sg6
I0
sg7
I12
sba(iMAP.tile
Tile
p519
(dp520
g4
I20
sg5
I11
sg6
I0
sg7
I12
sbaa(lp521
(iMAP.tile
Tile
p522
(dp523
g4
I0
sg5
I12
sg6
I0
sg7
I12
sba(iMAP.tile
Tile
p524
(dp525
g4
I1
sg5
I12
sg6
I0
sg7
I12
sba(iMAP.tile
Tile
p526
(dp527
g4
I2
sg5
I12
sg6
I0
sg7
I12
sba(iMAP.tile
Tile
p528
(dp529
g4
I3
sg5
I12
sg6
I0
sg7
I12
sba(iMAP.tile
Tile
p530
(dp531
g4
I4
sg5
I12
sg6
I0
sg7
I12
sba(iMAP.tile
Tile
p532
(dp533
g4
I5
sg5
I12
sg6
I0
sg7
I12
sba(iMAP.tile
Tile
p534
(dp535
g4
I6
sg5
I12
sg6
I0
sg7
I12
sba(iMAP.tile
Tile
p536
(dp537
g4
I7
sg5
I12
sg6
I0
sg7
I12
sba(iMAP.tile
Tile
p538
(dp539
g4
I8
sg5
I12
sg6
I0
sg7
I12
sba(iMAP.tile
Tile
p540
(dp541
g4
I9
sg5
I12
sg6
I0
sg7
I12
sba(iMAP.tile
Tile
p542
(dp543
g4
I10
sg5
I12
sg6
I0
sg7
I12
sba(iMAP.tile
Tile
p544
(dp545
g4
I11
sg5
I12
sg6
I0
sg7
I13
sba(iMAP.tile
Tile
p546
(dp547
g4
I12
sg5
I12
sg6
I0
sg7
I14
sba(iMAP.tile
Tile
p548
(dp549
g4
I13
sg5
I12
sg6
I0
sg7
I14
sba(iMAP.tile
Tile
p550
(dp551
g4
I14
sg5
I12
sg6
I0
sg7
I14
sba(iMAP.tile
Tile
p552
(dp553
g4
I15
sg5
I12
sg6
I0
sg7
I14
sba(iMAP.tile
Tile
p554
(dp555
g4
I16
sg5
I12
sg6
I0
sg7
I14
sba(iMAP.tile
Tile
p556
(dp557
g4
I17
sg5
I12
sg6
I0
sg7
I13
sba(iMAP.tile
Tile
p558
(dp559
g4
I18
sg5
I12
sg6
I0
sg7
I12
sba(iMAP.tile
Tile
p560
(dp561
g4
I19
sg5
I12
sg6
I0
sg7
I12
sba(iMAP.tile
Tile
p562
(dp563
g4
I20
sg5
I12
sg6
I0
sg7
I12
sbaa(lp564
(iMAP.tile
Tile
p565
(dp566
g4
I0
sg5
I13
sg6
I0
sg7
I12
sba(iMAP.tile
Tile
p567
(dp568
g4
I1
sg5
I13
sg6
I0
sg7
I12
sba(iMAP.tile
Tile
p569
(dp570
g4
I2
sg5
I13
sg6
I0
sg7
I12
sba(iMAP.tile
Tile
p571
(dp572
g4
I3
sg5
I13
sg6
I0
sg7
I12
sba(iMAP.tile
Tile
p573
(dp574
g4
I4
sg5
I13
sg6
I0
sg7
I12
sba(iMAP.tile
Tile
p575
(dp576
g4
I5
sg5
I13
sg6
I0
sg7
I12
sba(iMAP.tile
Tile
p577
(dp578
g4
I6
sg5
I13
sg6
I0
sg7
I12
sba(iMAP.tile
Tile
p579
(dp580
g4
I7
sg5
I13
sg6
I0
sg7
I12
sba(iMAP.tile
Tile
p581
(dp582
g4
I8
sg5
I13
sg6
I0
sg7
I12
sba(iMAP.tile
Tile
p583
(dp584
g4
I9
sg5
I13
sg6
I0
sg7
I12
sba(iMAP.tile
Tile
p585
(dp586
g4
I10
sg5
I13
sg6
I0
sg7
I13
sba(iMAP.tile
Tile
p587
(dp588
g4
I11
sg5
I13
sg6
I0
sg7
I14
sba(iMAP.tile
Tile
p589
(dp590
g4
I12
sg5
I13
sg6
I0
sg7
I15
sba(iMAP.tile
Tile
p591
(dp592
g4
I13
sg5
I13
sg6
I0
sg7
I15
sba(iMAP.tile
Tile
p593
(dp594
g4
I14
sg5
I13
sg6
I0
sg7
I8
sba(iMAP.tile
Tile
p595
(dp596
g4
I15
sg5
I13
sg6
I0
sg7
I15
sba(iMAP.tile
Tile
p597
(dp598
g4
I16
sg5
I13
sg6
I0
sg7
I15
sba(iMAP.tile
Tile
p599
(dp600
g4
I17
sg5
I13
sg6
I0
sg7
I14
sba(iMAP.tile
Tile
p601
(dp602
g4
I18
sg5
I13
sg6
I0
sg7
I13
sba(iMAP.tile
Tile
p603
(dp604
g4
I19
sg5
I13
sg6
I0
sg7
I12
sba(iMAP.tile
Tile
p605
(dp606
g4
I20
sg5
I13
sg6
I0
sg7
I12
sbaa(lp607
(iMAP.tile
Tile
p608
(dp609
g4
I0
sg5
I14
sg6
I0
sg7
I12
sba(iMAP.tile
Tile
p610
(dp611
g4
I1
sg5
I14
sg6
I0
sg7
I12
sba(iMAP.tile
Tile
p612
(dp613
g4
I2
sg5
I14
sg6
I0
sg7
I12
sba(iMAP.tile
Tile
p614
(dp615
g4
I3
sg5
I14
sg6
I0
sg7
I12
sba(iMAP.tile
Tile
p616
(dp617
g4
I4
sg5
I14
sg6
I0
sg7
I12
sba(iMAP.tile
Tile
p618
(dp619
g4
I5
sg5
I14
sg6
I0
sg7
I12
sba(iMAP.tile
Tile
p620
(dp621
g4
I6
sg5
I14
sg6
I0
sg7
I12
sba(iMAP.tile
Tile
p622
(dp623
g4
I7
sg5
I14
sg6
I0
sg7
I12
sba(iMAP.tile
Tile
p624
(dp625
g4
I8
sg5
I14
sg6
I0
sg7
I12
sba(iMAP.tile
Tile
p626
(dp627
g4
I9
sg5
I14
sg6
I0
sg7
I13
sba(iMAP.tile
Tile
p628
(dp629
g4
I10
sg5
I14
sg6
I0
sg7
I14
sba(iMAP.tile
Tile
p630
(dp631
g4
I11
sg5
I14
sg6
I0
sg7
I15
sba(iMAP.tile
Tile
p632
(dp633
g4
I12
sg5
I14
sg6
I0
sg7
I15
sba(iMAP.tile
Tile
p634
(dp635
g4
I13
sg5
I14
sg6
I0
sg7
I53
sba(iMAP.tile
Tile
p636
(dp637
g4
I14
sg5
I14
sg6
I0
sg7
I8
sba(iMAP.tile
Tile
p638
(dp639
g4
I15
sg5
I14
sg6
I0
sg7
I53
sba(iMAP.tile
Tile
p640
(dp641
g4
I16
sg5
I14
sg6
I0
sg7
I15
sba(iMAP.tile
Tile
p642
(dp643
g4
I17
sg5
I14
sg6
I0
sg7
I14
sba(iMAP.tile
Tile
p644
(dp645
g4
I18
sg5
I14
sg6
I0
sg7
I14
sba(iMAP.tile
Tile
p646
(dp647
g4
I19
sg5
I14
sg6
I0
sg7
I13
sba(iMAP.tile
Tile
p648
(dp649
g4
I20
sg5
I14
sg6
I0
sg7
I13
sbaa(lp650
(iMAP.tile
Tile
p651
(dp652
g4
I0
sg5
I15
sg6
I0
sg7
I12
sba(iMAP.tile
Tile
p653
(dp654
g4
I1
sg5
I15
sg6
I0
sg7
I12
sba(iMAP.tile
Tile
p655
(dp656
g4
I2
sg5
I15
sg6
I0
sg7
I12
sba(iMAP.tile
Tile
p657
(dp658
g4
I3
sg5
I15
sg6
I0
sg7
I12
sba(iMAP.tile
Tile
p659
(dp660
g4
I4
sg5
I15
sg6
I0
sg7
I12
sba(iMAP.tile
Tile
p661
(dp662
g4
I5
sg5
I15
sg6
I0
sg7
I12
sba(iMAP.tile
Tile
p663
(dp664
g4
I6
sg5
I15
sg6
I0
sg7
I12
sba(iMAP.tile
Tile
p665
(dp666
g4
I7
sg5
I15
sg6
I0
sg7
I12
sba(iMAP.tile
Tile
p667
(dp668
g4
I8
sg5
I15
sg6
I0
sg7
I12
sba(iMAP.tile
Tile
p669
(dp670
g4
I9
sg5
I15
sg6
I0
sg7
I13
sba(iMAP.tile
Tile
p671
(dp672
g4
I10
sg5
I15
sg6
I0
sg7
I14
sba(iMAP.tile
Tile
p673
(dp674
g4
I11
sg5
I15
sg6
I0
sg7
I15
sba(iMAP.tile
Tile
p675
(dp676
g4
I12
sg5
I15
sg6
I0
sg7
I53
sba(iMAP.tile
Tile
p677
(dp678
g4
I13
sg5
I15
sg6
I0
sg7
I53
sba(iMAP.tile
Tile
p679
(dp680
g4
I14
sg5
I15
sg6
I0
sg7
I15
sba(iMAP.tile
Tile
p681
(dp682
g4
I15
sg5
I15
sg6
I0
sg7
I53
sba(iMAP.tile
Tile
p683
(dp684
g4
I16
sg5
I15
sg6
I0
sg7
I15
sba(iMAP.tile
Tile
p685
(dp686
g4
I17
sg5
I15
sg6
I0
sg7
I15
sba(iMAP.tile
Tile
p687
(dp688
g4
I18
sg5
I15
sg6
I0
sg7
I15
sba(iMAP.tile
Tile
p689
(dp690
g4
I19
sg5
I15
sg6
I0
sg7
I14
sba(iMAP.tile
Tile
p691
(dp692
g4
I20
sg5
I15
sg6
I0
sg7
I14
sbaa(lp693
(iMAP.tile
Tile
p694
(dp695
g4
I0
sg5
I16
sg6
I0
sg7
I12
sba(iMAP.tile
Tile
p696
(dp697
g4
I1
sg5
I16
sg6
I0
sg7
I12
sba(iMAP.tile
Tile
p698
(dp699
g4
I2
sg5
I16
sg6
I0
sg7
I12
sba(iMAP.tile
Tile
p700
(dp701
g4
I3
sg5
I16
sg6
I0
sg7
I12
sba(iMAP.tile
Tile
p702
(dp703
g4
I4
sg5
I16
sg6
I0
sg7
I12
sba(iMAP.tile
Tile
p704
(dp705
g4
I5
sg5
I16
sg6
I0
sg7
I12
sba(iMAP.tile
Tile
p706
(dp707
g4
I6
sg5
I16
sg6
I0
sg7
I12
sba(iMAP.tile
Tile
p708
(dp709
g4
I7
sg5
I16
sg6
I0
sg7
I12
sba(iMAP.tile
Tile
p710
(dp711
g4
I8
sg5
I16
sg6
I0
sg7
I13
sba(iMAP.tile
Tile
p712
(dp713
g4
I9
sg5
I16
sg6
I0
sg7
I14
sba(iMAP.tile
Tile
p714
(dp715
g4
I10
sg5
I16
sg6
I0
sg7
I15
sba(iMAP.tile
Tile
p716
(dp717
g4
I11
sg5
I16
sg6
I0
sg7
I15
sba(iMAP.tile
Tile
p718
(dp719
g4
I12
sg5
I16
sg6
I0
sg7
I53
sba(iMAP.tile
Tile
p720
(dp721
g4
I13
sg5
I16
sg6
I0
sg7
I53
sba(iMAP.tile
Tile
p722
(dp723
g4
I14
sg5
I16
sg6
I0
sg7
I8
sba(iMAP.tile
Tile
p724
(dp725
g4
I15
sg5
I16
sg6
I0
sg7
I53
sba(iMAP.tile
Tile
p726
(dp727
g4
I16
sg5
I16
sg6
I0
sg7
I53
sba(iMAP.tile
Tile
p728
(dp729
g4
I17
sg5
I16
sg6
I0
sg7
I53
sba(iMAP.tile
Tile
p730
(dp731
g4
I18
sg5
I16
sg6
I0
sg7
I53
sba(iMAP.tile
Tile
p732
(dp733
g4
I19
sg5
I16
sg6
I0
sg7
I15
sba(iMAP.tile
Tile
p734
(dp735
g4
I20
sg5
I16
sg6
I0
sg7
I15
sbaa(lp736
(iMAP.tile
Tile
p737
(dp738
g4
I0
sg5
I17
sg6
I0
sg7
I12
sba(iMAP.tile
Tile
p739
(dp740
g4
I1
sg5
I17
sg6
I0
sg7
I12
sba(iMAP.tile
Tile
p741
(dp742
g4
I2
sg5
I17
sg6
I0
sg7
I12
sba(iMAP.tile
Tile
p743
(dp744
g4
I3
sg5
I17
sg6
I0
sg7
I12
sba(iMAP.tile
Tile
p745
(dp746
g4
I4
sg5
I17
sg6
I0
sg7
I12
sba(iMAP.tile
Tile
p747
(dp748
g4
I5
sg5
I17
sg6
I0
sg7
I12
sba(iMAP.tile
Tile
p749
(dp750
g4
I6
sg5
I17
sg6
I0
sg7
I12
sba(iMAP.tile
Tile
p751
(dp752
g4
I7
sg5
I17
sg6
I0
sg7
I13
sba(iMAP.tile
Tile
p753
(dp754
g4
I8
sg5
I17
sg6
I0
sg7
I14
sba(iMAP.tile
Tile
p755
(dp756
g4
I9
sg5
I17
sg6
I0
sg7
I15
sba(iMAP.tile
Tile
p757
(dp758
g4
I10
sg5
I17
sg6
I0
sg7
I15
sba(iMAP.tile
Tile
p759
(dp760
g4
I11
sg5
I17
sg6
I0
sg7
I53
sba(iMAP.tile
Tile
p761
(dp762
g4
I12
sg5
I17
sg6
I0
sg7
I53
sba(iMAP.tile
Tile
p763
(dp764
g4
I13
sg5
I17
sg6
I0
sg7
I53
sba(iMAP.tile
Tile
p765
(dp766
g4
I14
sg5
I17
sg6
I0
sg7
I15
sba(iMAP.tile
Tile
p767
(dp768
g4
I15
sg5
I17
sg6
I0
sg7
I15
sba(iMAP.tile
Tile
p769
(dp770
g4
I16
sg5
I17
sg6
I0
sg7
I15
sba(iMAP.tile
Tile
p771
(dp772
g4
I17
sg5
I17
sg6
I0
sg7
I53
sba(iMAP.tile
Tile
p773
(dp774
g4
I18
sg5
I17
sg6
I0
sg7
I53
sba(iMAP.tile
Tile
p775
(dp776
g4
I19
sg5
I17
sg6
I0
sg7
I53
sba(iMAP.tile
Tile
p777
(dp778
g4
I20
sg5
I17
sg6
I0
sg7
I53
sbaa(lp779
(iMAP.tile
Tile
p780
(dp781
g4
I0
sg5
I18
sg6
I0
sg7
I12
sba(iMAP.tile
Tile
p782
(dp783
g4
I1
sg5
I18
sg6
I0
sg7
I12
sba(iMAP.tile
Tile
p784
(dp785
g4
I2
sg5
I18
sg6
I0
sg7
I12
sba(iMAP.tile
Tile
p786
(dp787
g4
I3
sg5
I18
sg6
I0
sg7
I12
sba(iMAP.tile
Tile
p788
(dp789
g4
I4
sg5
I18
sg6
I0
sg7
I12
sba(iMAP.tile
Tile
p790
(dp791
g4
I5
sg5
I18
sg6
I0
sg7
I12
sba(iMAP.tile
Tile
p792
(dp793
g4
I6
sg5
I18
sg6
I0
sg7
I13
sba(iMAP.tile
Tile
p794
(dp795
g4
I7
sg5
I18
sg6
I0
sg7
I14
sba(iMAP.tile
Tile
p796
(dp797
g4
I8
sg5
I18
sg6
I0
sg7
I15
sba(iMAP.tile
Tile
p798
(dp799
g4
I9
sg5
I18
sg6
I0
sg7
I15
sba(iMAP.tile
Tile
p800
(dp801
g4
I10
sg5
I18
sg6
I0
sg7
I53
sba(iMAP.tile
Tile
p802
(dp803
g4
I11
sg5
I18
sg6
I0
sg7
I53
sba(iMAP.tile
Tile
p804
(dp805
g4
I12
sg5
I18
sg6
I0
sg7
I53
sba(iMAP.tile
Tile
p806
(dp807
g4
I13
sg5
I18
sg6
I0
sg7
I53
sba(iMAP.tile
Tile
p808
(dp809
g4
I14
sg5
I18
sg6
I0
sg7
I53
sba(iMAP.tile
Tile
p810
(dp811
g4
I15
sg5
I18
sg6
I0
sg7
I53
sba(iMAP.tile
Tile
p812
(dp813
g4
I16
sg5
I18
sg6
I0
sg7
I15
sba(iMAP.tile
Tile
p814
(dp815
g4
I17
sg5
I18
sg6
I0
sg7
I15
sba(iMAP.tile
Tile
p816
(dp817
g4
I18
sg5
I18
sg6
I0
sg7
I53
sba(iMAP.tile
Tile
p818
(dp819
g4
I19
sg5
I18
sg6
I0
sg7
I53
sba(iMAP.tile
Tile
p820
(dp821
g4
I20
sg5
I18
sg6
I0
sg7
I53
sbaa(lp822
(iMAP.tile
Tile
p823
(dp824
g4
I0
sg5
I19
sg6
I0
sg7
I12
sba(iMAP.tile
Tile
p825
(dp826
g4
I1
sg5
I19
sg6
I0
sg7
I12
sba(iMAP.tile
Tile
p827
(dp828
g4
I2
sg5
I19
sg6
I0
sg7
I12
sba(iMAP.tile
Tile
p829
(dp830
g4
I3
sg5
I19
sg6
I0
sg7
I12
sba(iMAP.tile
Tile
p831
(dp832
g4
I4
sg5
I19
sg6
I0
sg7
I12
sba(iMAP.tile
Tile
p833
(dp834
g4
I5
sg5
I19
sg6
I0
sg7
I12
sba(iMAP.tile
Tile
p835
(dp836
g4
I6
sg5
I19
sg6
I0
sg7
I13
sba(iMAP.tile
Tile
p837
(dp838
g4
I7
sg5
I19
sg6
I0
sg7
I14
sba(iMAP.tile
Tile
p839
(dp840
g4
I8
sg5
I19
sg6
I0
sg7
I15
sba(iMAP.tile
Tile
p841
(dp842
g4
I9
sg5
I19
sg6
I0
sg7
I53
sba(iMAP.tile
Tile
p843
(dp844
g4
I10
sg5
I19
sg6
I0
sg7
I53
sba(iMAP.tile
Tile
p845
(dp846
g4
I11
sg5
I19
sg6
I0
sg7
I53
sba(iMAP.tile
Tile
p847
(dp848
g4
I12
sg5
I19
sg6
I0
sg7
I53
sba(iMAP.tile
Tile
p849
(dp850
g4
I13
sg5
I19
sg6
I0
sg7
I53
sba(iMAP.tile
Tile
p851
(dp852
g4
I14
sg5
I19
sg6
I0
sg7
I53
sba(iMAP.tile
Tile
p853
(dp854
g4
I15
sg5
I19
sg6
I0
sg7
I53
sba(iMAP.tile
Tile
p855
(dp856
g4
I16
sg5
I19
sg6
I0
sg7
I53
sba(iMAP.tile
Tile
p857
(dp858
g4
I17
sg5
I19
sg6
I0
sg7
I15
sba(iMAP.tile
Tile
p859
(dp860
g4
I18
sg5
I19
sg6
I0
sg7
I15
sba(iMAP.tile
Tile
p861
(dp862
g4
I19
sg5
I19
sg6
I0
sg7
I53
sba(iMAP.tile
Tile
p863
(dp864
g4
I20
sg5
I19
sg6
I0
sg7
I53
sbaa(lp865
(iMAP.tile
Tile
p866
(dp867
g4
I0
sg5
I20
sg6
I0
sg7
I12
sba(iMAP.tile
Tile
p868
(dp869
g4
I1
sg5
I20
sg6
I0
sg7
I12
sba(iMAP.tile
Tile
p870
(dp871
g4
I2
sg5
I20
sg6
I0
sg7
I12
sba(iMAP.tile
Tile
p872
(dp873
g4
I3
sg5
I20
sg6
I0
sg7
I12
sba(iMAP.tile
Tile
p874
(dp875
g4
I4
sg5
I20
sg6
I0
sg7
I12
sba(iMAP.tile
Tile
p876
(dp877
g4
I5
sg5
I20
sg6
I0
sg7
I12
sba(iMAP.tile
Tile
p878
(dp879
g4
I6
sg5
I20
sg6
I0
sg7
I13
sba(iMAP.tile
Tile
p880
(dp881
g4
I7
sg5
I20
sg6
I0
sg7
I14
sba(iMAP.tile
Tile
p882
(dp883
g4
I8
sg5
I20
sg6
I0
sg7
I15
sba(iMAP.tile
Tile
p884
(dp885
g4
I9
sg5
I20
sg6
I0
sg7
I53
sba(iMAP.tile
Tile
p886
(dp887
g4
I10
sg5
I20
sg6
I0
sg7
I53
sba(iMAP.tile
Tile
p888
(dp889
g4
I11
sg5
I20
sg6
I0
sg7
I53
sba(iMAP.tile
Tile
p890
(dp891
g4
I12
sg5
I20
sg6
I0
sg7
I53
sba(iMAP.tile
Tile
p892
(dp893
g4
I13
sg5
I20
sg6
I0
sg7
I53
sba(iMAP.tile
Tile
p894
(dp895
g4
I14
sg5
I20
sg6
I0
sg7
I53
sba(iMAP.tile
Tile
p896
(dp897
g4
I15
sg5
I20
sg6
I0
sg7
I53
sba(iMAP.tile
Tile
p898
(dp899
g4
I16
sg5
I20
sg6
I0
sg7
I53
sba(iMAP.tile
Tile
p900
(dp901
g4
I17
sg5
I20
sg6
I0
sg7
I53
sba(iMAP.tile
Tile
p902
(dp903
g4
I18
sg5
I20
sg6
I0
sg7
I15
sba(iMAP.tile
Tile
p904
(dp905
g4
I19
sg5
I20
sg6
I0
sg7
I53
sba(iMAP.tile
Tile
p906
(dp907
g4
I20
sg5
I20
sg6
I0
sg7
I53
sbaaI0
(I4
I5
tp908
(I10
I20
tp909
(I10
I16
tp910
(dp911
(dp912
(lp913
tp914
.