((lp0
(lp1
I52
aI52
aI12
aI12
aI12
aI12
aI12
aI52
aI52
aI52
aI52
aI12
aI12
aI12
aI12
aI12
aI48
aI48
aI48
aI12
aa(lp2
I52
aI29
aI12
aI29
aI12
aI29
aI12
aI29
aI52
aI52
aI52
aI12
aI12
aI13
aI12
aI12
aI41
aI41
aI41
aI12
aa(lp3
I8
aI29
aI28
aI28
aI28
aI28
aI28
aI29
aI52
aI52
aI8
aI12
aI12
aI12
aI12
aI12
aI41
aI59
aI41
aI12
aa(lp4
I8
aI29
aI28
aI28
aI28
aI28
aI28
aI29
aI52
aI52
aI8
aI8
aI8
aI8
aI8
aI8
aI8
aI8
aI8
aI12
aa(lp5
I8
aI29
aI28
aI32
aI33
aI34
aI28
aI29
aI52
aI52
aI8
aI12
aI12
aI12
aI12
aI12
aI8
aI55
aI8
aI12
aa(lp6
I8
aI29
aI28
aI35
aI120
aI37
aI28
aI29
aI52
aI52
aI8
aI16
aI16
aI16
aI16
aI16
aI16
aI16
aI16
aI12
aa(lp7
I8
aI8
aI8
aI8
aI8
aI8
aI8
aI52
aI52
aI52
aI8
aI12
aI12
aI12
aI12
aI12
aI12
aI12
aI12
aI12
aa(lp8
I52
aI8
aI8
aI8
aI8
aI8
aI8
aI8
aI8
aI8
aI8
aI16
aI16
aI16
aI16
aI16
aI16
aI16
aI16
aI12
aa(lp9
I52
aI52
aI52
aI52
aI65
aI66
aI67
aI52
aI52
aI52
aI8
aI12
aI12
aI12
aI12
aI12
aI12
aI12
aI12
aI12
aa(lp10
I52
aI52
aI52
aI52
aI68
aI69
aI70
aI52
aI52
aI52
aI8
aI16
aI16
aI16
aI16
aI16
aI16
aI16
aI16
aI12
aa(lp11
I52
aI52
aI52
aI52
aI52
aI52
aI52
aI52
aI52
aI52
aI8
aI12
aI12
aI12
aI12
aI12
aI12
aI12
aI12
aI12
aa(lp12
I52
aI52
aI52
aI52
aI52
aI52
aI52
aI52
aI52
aI12
aI8
aI8
aI12
aI12
aI13
aI12
aI12
aI12
aI12
aI12
aa(lp13
I52
aI52
aI52
aI52
aI52
aI52
aI52
aI52
aI12
aI12
aI12
aI8
aI12
aI12
aI12
aI12
aI12
aI53
aI53
aI53
aa(lp14
I52
aI52
aI52
aI52
aI52
aI52
aI52
aI12
aI12
aI12
aI12
aI8
aI12
aI12
aI53
aI53
aI12
aI12
aI53
aI53
aa(lp15
I52
aI52
aI52
aI52
aI52
aI52
aI12
aI12
aI12
aI12
aI12
aI8
aI12
aI12
aI12
aI53
aI53
aI12
aI53
aI53
aa(lp16
I52
aI52
aI52
aI52
aI52
aI12
aI12
aI12
aI12
aI12
aI12
aI8
aI12
aI12
aI53
aI53
aI53
aI12
aI12
aI53
aa(lp17
I52
aI52
aI52
aI52
aI12
aI12
aI12
aI12
aI12
aI12
aI12
aI8
aI12
aI12
aI53
aI53
aI53
aI53
aI12
aI12
aa(lp18
I52
aI52
aI52
aI12
aI12
aI12
aI12
aI12
aI12
aI8
aI8
aI8
aI12
aI12
aI53
aI53
aI53
aI53
aI53
aI12
aa(lp19
I52
aI52
aI12
aI12
aI12
aI13
aI12
aI12
aI12
aI8
aI12
aI12
aI12
aI12
aI53
aI53
aI53
aI53
aI53
aI53
aa(lp20
I52
aI52
aI12
aI12
aI12
aI12
aI12
aI12
aI12
aI121
aI12
aI12
aI12
aI53
aI53
aI53
aI53
aI53
aI53
aI53
aa(I4
I5
tp21
(I9
I19
tp22
(I9
I17
tp23
(dp24
tp25
.