((lp0
(lp1
(iMAP.tile
Tile
p2
(dp3
S'y'
p4
I0
sS'x'
p5
I0
sS'bg'
p6
I0
sS'fg'
p7
I12
sba(iMAP.tile
Tile
p8
(dp9
g4
I1
sg5
I0
sg6
I0
sg7
I12
sba(iMAP.tile
Tile
p10
(dp11
g4
I2
sg5
I0
sg6
I0
sg7
I12
sba(iMAP.tile
Tile
p12
(dp13
g4
I3
sg5
I0
sg6
I0
sg7
I12
sba(iMAP.tile
Tile
p14
(dp15
g4
I4
sg5
I0
sg6
I0
sg7
I65
sba(iMAP.tile
Tile
p16
(dp17
g4
I5
sg5
I0
sg6
I0
sg7
I12
sba(iMAP.tile
Tile
p18
(dp19
g4
I6
sg5
I0
sg6
I0
sg7
I12
sba(iMAP.tile
Tile
p20
(dp21
g4
I7
sg5
I0
sg6
I0
sg7
I12
sba(iMAP.tile
Tile
p22
(dp23
g4
I8
sg5
I0
sg6
I0
sg7
I12
sba(iMAP.tile
Tile
p24
(dp25
g4
I9
sg5
I0
sg6
I0
sg7
I12
sba(iMAP.tile
Tile
p26
(dp27
g4
I10
sg5
I0
sg6
I0
sg7
I8
sba(iMAP.tile
Tile
p28
(dp29
g4
I11
sg5
I0
sg6
I0
sg7
I12
sba(iMAP.tile
Tile
p30
(dp31
g4
I12
sg5
I0
sg6
I0
sg7
I12
sba(iMAP.tile
Tile
p32
(dp33
g4
I13
sg5
I0
sg6
I0
sg7
I12
sba(iMAP.tile
Tile
p34
(dp35
g4
I14
sg5
I0
sg6
I0
sg7
I12
sba(iMAP.tile
Tile
p36
(dp37
g4
I15
sg5
I0
sg6
I0
sg7
I12
sba(iMAP.tile
Tile
p38
(dp39
g4
I16
sg5
I0
sg6
I0
sg7
I12
sba(iMAP.tile
Tile
p40
(dp41
g4
I17
sg5
I0
sg6
I0
sg7
I12
sba(iMAP.tile
Tile
p42
(dp43
g4
I18
sg5
I0
sg6
I0
sg7
I12
sba(iMAP.tile
Tile
p44
(dp45
g4
I19
sg5
I0
sg6
I0
sg7
I12
sba(iMAP.tile
Tile
p46
(dp47
g4
I20
sg5
I0
sg6
I0
sg7
I12
sba(iMAP.tile
Tile
p48
(dp49
g4
I21
sg5
I0
sg6
I0
sg7
I12
sbaa(lp50
(iMAP.tile
Tile
p51
(dp52
g4
I0
sg5
I1
sg6
I0
sg7
I12
sba(iMAP.tile
Tile
p53
(dp54
g4
I1
sg5
I1
sg6
I0
sg7
I12
sba(iMAP.tile
Tile
p55
(dp56
g4
I2
sg5
I1
sg6
I0
sg7
I12
sba(iMAP.tile
Tile
p57
(dp58
g4
I3
sg5
I1
sg6
I0
sg7
I12
sba(iMAP.tile
Tile
p59
(dp60
g4
I4
sg5
I1
sg6
I0
sg7
I66
sba(iMAP.tile
Tile
p61
(dp62
g4
I5
sg5
I1
sg6
I0
sg7
I12
sba(iMAP.tile
Tile
p63
(dp64
g4
I6
sg5
I1
sg6
I0
sg7
I12
sba(iMAP.tile
Tile
p65
(dp66
g4
I7
sg5
I1
sg6
I0
sg7
I12
sba(iMAP.tile
Tile
p67
(dp68
g4
I8
sg5
I1
sg6
I0
sg7
I12
sba(iMAP.tile
Tile
p69
(dp70
g4
I9
sg5
I1
sg6
I0
sg7
I12
sba(iMAP.tile
Tile
p71
(dp72
g4
I10
sg5
I1
sg6
I0
sg7
I8
sba(iMAP.tile
Tile
p73
(dp74
g4
I11
sg5
I1
sg6
I0
sg7
I12
sba(iMAP.tile
Tile
p75
(dp76
g4
I12
sg5
I1
sg6
I0
sg7
I12
sba(iMAP.tile
Tile
p77
(dp78
g4
I13
sg5
I1
sg6
I0
sg7
I12
sba(iMAP.tile
Tile
p79
(dp80
g4
I14
sg5
I1
sg6
I0
sg7
I12
sba(iMAP.tile
Tile
p81
(dp82
g4
I15
sg5
I1
sg6
I0
sg7
I12
sba(iMAP.tile
Tile
p83
(dp84
g4
I16
sg5
I1
sg6
I0
sg7
I12
sba(iMAP.tile
Tile
p85
(dp86
g4
I17
sg5
I1
sg6
I0
sg7
I12
sba(iMAP.tile
Tile
p87
(dp88
g4
I18
sg5
I1
sg6
I0
sg7
I12
sba(iMAP.tile
Tile
p89
(dp90
g4
I19
sg5
I1
sg6
I0
sg7
I12
sba(iMAP.tile
Tile
p91
(dp92
g4
I20
sg5
I1
sg6
I0
sg7
I12
sba(iMAP.tile
Tile
p93
(dp94
g4
I21
sg5
I1
sg6
I0
sg7
I12
sbaa(lp95
(iMAP.tile
Tile
p96
(dp97
g4
I0
sg5
I2
sg6
I0
sg7
I12
sba(iMAP.tile
Tile
p98
(dp99
g4
I1
sg5
I2
sg6
I0
sg7
I12
sba(iMAP.tile
Tile
p100
(dp101
g4
I2
sg5
I2
sg6
I0
sg7
I12
sba(iMAP.tile
Tile
p102
(dp103
g4
I3
sg5
I2
sg6
I0
sg7
I12
sba(iMAP.tile
Tile
p104
(dp105
g4
I4
sg5
I2
sg6
I0
sg7
I67
sba(iMAP.tile
Tile
p106
(dp107
g4
I5
sg5
I2
sg6
I0
sg7
I12
sba(iMAP.tile
Tile
p108
(dp109
g4
I6
sg5
I2
sg6
I0
sg7
I12
sba(iMAP.tile
Tile
p110
(dp111
g4
I7
sg5
I2
sg6
I0
sg7
I12
sba(iMAP.tile
Tile
p112
(dp113
g4
I8
sg5
I2
sg6
I0
sg7
I56
sba(iMAP.tile
Tile
p114
(dp115
g4
I9
sg5
I2
sg6
I0
sg7
I12
sba(iMAP.tile
Tile
p116
(dp117
g4
I10
sg5
I2
sg6
I0
sg7
I8
sba(iMAP.tile
Tile
p118
(dp119
g4
I11
sg5
I2
sg6
I0
sg7
I12
sba(iMAP.tile
Tile
p120
(dp121
g4
I12
sg5
I2
sg6
I0
sg7
I12
sba(iMAP.tile
Tile
p122
(dp123
g4
I13
sg5
I2
sg6
I0
sg7
I12
sba(iMAP.tile
Tile
p124
(dp125
g4
I14
sg5
I2
sg6
I0
sg7
I12
sba(iMAP.tile
Tile
p126
(dp127
g4
I15
sg5
I2
sg6
I0
sg7
I12
sba(iMAP.tile
Tile
p128
(dp129
g4
I16
sg5
I2
sg6
I0
sg7
I12
sba(iMAP.tile
Tile
p130
(dp131
g4
I17
sg5
I2
sg6
I0
sg7
I12
sba(iMAP.tile
Tile
p132
(dp133
g4
I18
sg5
I2
sg6
I0
sg7
I12
sba(iMAP.tile
Tile
p134
(dp135
g4
I19
sg5
I2
sg6
I0
sg7
I12
sba(iMAP.tile
Tile
p136
(dp137
g4
I20
sg5
I2
sg6
I0
sg7
I12
sba(iMAP.tile
Tile
p138
(dp139
g4
I21
sg5
I2
sg6
I0
sg7
I12
sbaa(lp140
(iMAP.tile
Tile
p141
(dp142
g4
I0
sg5
I3
sg6
I0
sg7
I12
sba(iMAP.tile
Tile
p143
(dp144
g4
I1
sg5
I3
sg6
I0
sg7
I12
sba(iMAP.tile
Tile
p145
(dp146
g4
I2
sg5
I3
sg6
I0
sg7
I12
sba(iMAP.tile
Tile
p147
(dp148
g4
I3
sg5
I3
sg6
I0
sg7
I12
sba(iMAP.tile
Tile
p149
(dp150
g4
I4
sg5
I3
sg6
I0
sg7
I65
sba(iMAP.tile
Tile
p151
(dp152
g4
I5
sg5
I3
sg6
I0
sg7
I12
sba(iMAP.tile
Tile
p153
(dp154
g4
I6
sg5
I3
sg6
I0
sg7
I12
sba(iMAP.tile
Tile
p155
(dp156
g4
I7
sg5
I3
sg6
I0
sg7
I12
sba(iMAP.tile
Tile
p157
(dp158
g4
I8
sg5
I3
sg6
I0
sg7
I56
sba(iMAP.tile
Tile
p159
(dp160
g4
I9
sg5
I3
sg6
I0
sg7
I58
sba(iMAP.tile
Tile
p161
(dp162
g4
I10
sg5
I3
sg6
I0
sg7
I8
sba(iMAP.tile
Tile
p163
(dp164
g4
I11
sg5
I3
sg6
I0
sg7
I12
sba(iMAP.tile
Tile
p165
(dp166
g4
I12
sg5
I3
sg6
I0
sg7
I12
sba(iMAP.tile
Tile
p167
(dp168
g4
I13
sg5
I3
sg6
I0
sg7
I12
sba(iMAP.tile
Tile
p169
(dp170
g4
I14
sg5
I3
sg6
I0
sg7
I12
sba(iMAP.tile
Tile
p171
(dp172
g4
I15
sg5
I3
sg6
I0
sg7
I12
sba(iMAP.tile
Tile
p173
(dp174
g4
I16
sg5
I3
sg6
I0
sg7
I12
sba(iMAP.tile
Tile
p175
(dp176
g4
I17
sg5
I3
sg6
I0
sg7
I12
sba(iMAP.tile
Tile
p177
(dp178
g4
I18
sg5
I3
sg6
I0
sg7
I12
sba(iMAP.tile
Tile
p179
(dp180
g4
I19
sg5
I3
sg6
I0
sg7
I12
sba(iMAP.tile
Tile
p181
(dp182
g4
I20
sg5
I3
sg6
I0
sg7
I12
sba(iMAP.tile
Tile
p183
(dp184
g4
I21
sg5
I3
sg6
I0
sg7
I12
sbaa(lp185
(iMAP.tile
Tile
p186
(dp187
g4
I0
sg5
I4
sg6
I0
sg7
I12
sba(iMAP.tile
Tile
p188
(dp189
g4
I1
sg5
I4
sg6
I0
sg7
I12
sba(iMAP.tile
Tile
p190
(dp191
g4
I2
sg5
I4
sg6
I0
sg7
I12
sba(iMAP.tile
Tile
p192
(dp193
g4
I3
sg5
I4
sg6
I0
sg7
I12
sba(iMAP.tile
Tile
p194
(dp195
g4
I4
sg5
I4
sg6
I0
sg7
I66
sba(iMAP.tile
Tile
p196
(dp197
g4
I5
sg5
I4
sg6
I0
sg7
I12
sba(iMAP.tile
Tile
p198
(dp199
g4
I6
sg5
I4
sg6
I0
sg7
I12
sba(iMAP.tile
Tile
p200
(dp201
g4
I7
sg5
I4
sg6
I0
sg7
I12
sba(iMAP.tile
Tile
p202
(dp203
g4
I8
sg5
I4
sg6
I0
sg7
I56
sba(iMAP.tile
Tile
p204
(dp205
g4
I9
sg5
I4
sg6
I0
sg7
I12
sba(iMAP.tile
Tile
p206
(dp207
g4
I10
sg5
I4
sg6
I0
sg7
I8
sba(iMAP.tile
Tile
p208
(dp209
g4
I11
sg5
I4
sg6
I0
sg7
I12
sba(iMAP.tile
Tile
p210
(dp211
g4
I12
sg5
I4
sg6
I0
sg7
I12
sba(iMAP.tile
Tile
p212
(dp213
g4
I13
sg5
I4
sg6
I0
sg7
I12
sba(iMAP.tile
Tile
p214
(dp215
g4
I14
sg5
I4
sg6
I0
sg7
I12
sba(iMAP.tile
Tile
p216
(dp217
g4
I15
sg5
I4
sg6
I0
sg7
I12
sba(iMAP.tile
Tile
p218
(dp219
g4
I16
sg5
I4
sg6
I0
sg7
I12
sba(iMAP.tile
Tile
p220
(dp221
g4
I17
sg5
I4
sg6
I0
sg7
I12
sba(iMAP.tile
Tile
p222
(dp223
g4
I18
sg5
I4
sg6
I0
sg7
I12
sba(iMAP.tile
Tile
p224
(dp225
g4
I19
sg5
I4
sg6
I0
sg7
I12
sba(iMAP.tile
Tile
p226
(dp227
g4
I20
sg5
I4
sg6
I0
sg7
I12
sba(iMAP.tile
Tile
p228
(dp229
g4
I21
sg5
I4
sg6
I0
sg7
I12
sbaa(lp230
(iMAP.tile
Tile
p231
(dp232
g4
I0
sg5
I5
sg6
I0
sg7
I12
sba(iMAP.tile
Tile
p233
(dp234
g4
I1
sg5
I5
sg6
I0
sg7
I12
sba(iMAP.tile
Tile
p235
(dp236
g4
I2
sg5
I5
sg6
I0
sg7
I12
sba(iMAP.tile
Tile
p237
(dp238
g4
I3
sg5
I5
sg6
I0
sg7
I12
sba(iMAP.tile
Tile
p239
(dp240
g4
I4
sg5
I5
sg6
I0
sg7
I67
sba(iMAP.tile
Tile
p241
(dp242
g4
I5
sg5
I5
sg6
I0
sg7
I12
sba(iMAP.tile
Tile
p243
(dp244
g4
I6
sg5
I5
sg6
I0
sg7
I12
sba(iMAP.tile
Tile
p245
(dp246
g4
I7
sg5
I5
sg6
I0
sg7
I12
sba(iMAP.tile
Tile
p247
(dp248
g4
I8
sg5
I5
sg6
I0
sg7
I56
sba(iMAP.tile
Tile
p249
(dp250
g4
I9
sg5
I5
sg6
I0
sg7
I12
sba(iMAP.tile
Tile
p251
(dp252
g4
I10
sg5
I5
sg6
I0
sg7
I8
sba(iMAP.tile
Tile
p253
(dp254
g4
I11
sg5
I5
sg6
I0
sg7
I12
sba(iMAP.tile
Tile
p255
(dp256
g4
I12
sg5
I5
sg6
I0
sg7
I12
sba(iMAP.tile
Tile
p257
(dp258
g4
I13
sg5
I5
sg6
I0
sg7
I12
sba(iMAP.tile
Tile
p259
(dp260
g4
I14
sg5
I5
sg6
I0
sg7
I12
sba(iMAP.tile
Tile
p261
(dp262
g4
I15
sg5
I5
sg6
I0
sg7
I12
sba(iMAP.tile
Tile
p263
(dp264
g4
I16
sg5
I5
sg6
I0
sg7
I12
sba(iMAP.tile
Tile
p265
(dp266
g4
I17
sg5
I5
sg6
I0
sg7
I12
sba(iMAP.tile
Tile
p267
(dp268
g4
I18
sg5
I5
sg6
I0
sg7
I12
sba(iMAP.tile
Tile
p269
(dp270
g4
I19
sg5
I5
sg6
I0
sg7
I12
sba(iMAP.tile
Tile
p271
(dp272
g4
I20
sg5
I5
sg6
I0
sg7
I12
sba(iMAP.tile
Tile
p273
(dp274
g4
I21
sg5
I5
sg6
I0
sg7
I12
sbaa(lp275
(iMAP.tile
Tile
p276
(dp277
g4
I0
sg5
I6
sg6
I0
sg7
I12
sba(iMAP.tile
Tile
p278
(dp279
g4
I1
sg5
I6
sg6
I0
sg7
I12
sba(iMAP.tile
Tile
p280
(dp281
g4
I2
sg5
I6
sg6
I0
sg7
I12
sba(iMAP.tile
Tile
p282
(dp283
g4
I3
sg5
I6
sg6
I0
sg7
I12
sba(iMAP.tile
Tile
p284
(dp285
g4
I4
sg5
I6
sg6
I0
sg7
I65
sba(iMAP.tile
Tile
p286
(dp287
g4
I5
sg5
I6
sg6
I0
sg7
I12
sba(iMAP.tile
Tile
p288
(dp289
g4
I6
sg5
I6
sg6
I0
sg7
I12
sba(iMAP.tile
Tile
p290
(dp291
g4
I7
sg5
I6
sg6
I0
sg7
I12
sba(iMAP.tile
Tile
p292
(dp293
g4
I8
sg5
I6
sg6
I0
sg7
I56
sba(iMAP.tile
Tile
p294
(dp295
g4
I9
sg5
I6
sg6
I0
sg7
I59
sba(iMAP.tile
Tile
p296
(dp297
g4
I10
sg5
I6
sg6
I0
sg7
I8
sba(iMAP.tile
Tile
p298
(dp299
g4
I11
sg5
I6
sg6
I0
sg7
I12
sba(iMAP.tile
Tile
p300
(dp301
g4
I12
sg5
I6
sg6
I0
sg7
I12
sba(iMAP.tile
Tile
p302
(dp303
g4
I13
sg5
I6
sg6
I0
sg7
I12
sba(iMAP.tile
Tile
p304
(dp305
g4
I14
sg5
I6
sg6
I0
sg7
I12
sba(iMAP.tile
Tile
p306
(dp307
g4
I15
sg5
I6
sg6
I0
sg7
I12
sba(iMAP.tile
Tile
p308
(dp309
g4
I16
sg5
I6
sg6
I0
sg7
I12
sba(iMAP.tile
Tile
p310
(dp311
g4
I17
sg5
I6
sg6
I0
sg7
I12
sba(iMAP.tile
Tile
p312
(dp313
g4
I18
sg5
I6
sg6
I0
sg7
I12
sba(iMAP.tile
Tile
p314
(dp315
g4
I19
sg5
I6
sg6
I0
sg7
I12
sba(iMAP.tile
Tile
p316
(dp317
g4
I20
sg5
I6
sg6
I0
sg7
I12
sba(iMAP.tile
Tile
p318
(dp319
g4
I21
sg5
I6
sg6
I0
sg7
I29
sbaa(lp320
(iMAP.tile
Tile
p321
(dp322
g4
I0
sg5
I7
sg6
I0
sg7
I52
sba(iMAP.tile
Tile
p323
(dp324
g4
I1
sg5
I7
sg6
I0
sg7
I12
sba(iMAP.tile
Tile
p325
(dp326
g4
I2
sg5
I7
sg6
I0
sg7
I12
sba(iMAP.tile
Tile
p327
(dp328
g4
I3
sg5
I7
sg6
I0
sg7
I12
sba(iMAP.tile
Tile
p329
(dp330
g4
I4
sg5
I7
sg6
I0
sg7
I66
sba(iMAP.tile
Tile
p331
(dp332
g4
I5
sg5
I7
sg6
I0
sg7
I12
sba(iMAP.tile
Tile
p333
(dp334
g4
I6
sg5
I7
sg6
I0
sg7
I12
sba(iMAP.tile
Tile
p335
(dp336
g4
I7
sg5
I7
sg6
I0
sg7
I12
sba(iMAP.tile
Tile
p337
(dp338
g4
I8
sg5
I7
sg6
I0
sg7
I56
sba(iMAP.tile
Tile
p339
(dp340
g4
I9
sg5
I7
sg6
I0
sg7
I12
sba(iMAP.tile
Tile
p341
(dp342
g4
I10
sg5
I7
sg6
I0
sg7
I8
sba(iMAP.tile
Tile
p343
(dp344
g4
I11
sg5
I7
sg6
I0
sg7
I12
sba(iMAP.tile
Tile
p345
(dp346
g4
I12
sg5
I7
sg6
I0
sg7
I12
sba(iMAP.tile
Tile
p347
(dp348
g4
I13
sg5
I7
sg6
I0
sg7
I12
sba(iMAP.tile
Tile
p349
(dp350
g4
I14
sg5
I7
sg6
I0
sg7
I12
sba(iMAP.tile
Tile
p351
(dp352
g4
I15
sg5
I7
sg6
I0
sg7
I12
sba(iMAP.tile
Tile
p353
(dp354
g4
I16
sg5
I7
sg6
I0
sg7
I12
sba(iMAP.tile
Tile
p355
(dp356
g4
I17
sg5
I7
sg6
I0
sg7
I12
sba(iMAP.tile
Tile
p357
(dp358
g4
I18
sg5
I7
sg6
I0
sg7
I12
sba(iMAP.tile
Tile
p359
(dp360
g4
I19
sg5
I7
sg6
I0
sg7
I12
sba(iMAP.tile
Tile
p361
(dp362
g4
I20
sg5
I7
sg6
I0
sg7
I12
sba(iMAP.tile
Tile
p363
(dp364
g4
I21
sg5
I7
sg6
I0
sg7
I29
sbaa(lp365
(iMAP.tile
Tile
p366
(dp367
g4
I0
sg5
I8
sg6
I0
sg7
I52
sba(iMAP.tile
Tile
p368
(dp369
g4
I1
sg5
I8
sg6
I0
sg7
I52
sba(iMAP.tile
Tile
p370
(dp371
g4
I2
sg5
I8
sg6
I0
sg7
I12
sba(iMAP.tile
Tile
p372
(dp373
g4
I3
sg5
I8
sg6
I0
sg7
I12
sba(iMAP.tile
Tile
p374
(dp375
g4
I4
sg5
I8
sg6
I0
sg7
I67
sba(iMAP.tile
Tile
p376
(dp377
g4
I5
sg5
I8
sg6
I0
sg7
I12
sba(iMAP.tile
Tile
p378
(dp379
g4
I6
sg5
I8
sg6
I0
sg7
I12
sba(iMAP.tile
Tile
p380
(dp381
g4
I7
sg5
I8
sg6
I0
sg7
I12
sba(iMAP.tile
Tile
p382
(dp383
g4
I8
sg5
I8
sg6
I0
sg7
I12
sba(iMAP.tile
Tile
p384
(dp385
g4
I9
sg5
I8
sg6
I0
sg7
I8
sba(iMAP.tile
Tile
p386
(dp387
g4
I10
sg5
I8
sg6
I0
sg7
I8
sba(iMAP.tile
Tile
p388
(dp389
g4
I11
sg5
I8
sg6
I0
sg7
I8
sba(iMAP.tile
Tile
p390
(dp391
g4
I12
sg5
I8
sg6
I0
sg7
I12
sba(iMAP.tile
Tile
p392
(dp393
g4
I13
sg5
I8
sg6
I0
sg7
I12
sba(iMAP.tile
Tile
p394
(dp395
g4
I14
sg5
I8
sg6
I0
sg7
I12
sba(iMAP.tile
Tile
p396
(dp397
g4
I15
sg5
I8
sg6
I0
sg7
I12
sba(iMAP.tile
Tile
p398
(dp399
g4
I16
sg5
I8
sg6
I0
sg7
I12
sba(iMAP.tile
Tile
p400
(dp401
g4
I17
sg5
I8
sg6
I0
sg7
I12
sba(iMAP.tile
Tile
p402
(dp403
g4
I18
sg5
I8
sg6
I0
sg7
I12
sba(iMAP.tile
Tile
p404
(dp405
g4
I19
sg5
I8
sg6
I0
sg7
I12
sba(iMAP.tile
Tile
p406
(dp407
g4
I20
sg5
I8
sg6
I0
sg7
I29
sba(iMAP.tile
Tile
p408
(dp409
g4
I21
sg5
I8
sg6
I0
sg7
I29
sbaa(lp410
(iMAP.tile
Tile
p411
(dp412
g4
I0
sg5
I9
sg6
I0
sg7
I52
sba(iMAP.tile
Tile
p413
(dp414
g4
I1
sg5
I9
sg6
I0
sg7
I52
sba(iMAP.tile
Tile
p415
(dp416
g4
I2
sg5
I9
sg6
I0
sg7
I52
sba(iMAP.tile
Tile
p417
(dp418
g4
I3
sg5
I9
sg6
I0
sg7
I12
sba(iMAP.tile
Tile
p419
(dp420
g4
I4
sg5
I9
sg6
I0
sg7
I65
sba(iMAP.tile
Tile
p421
(dp422
g4
I5
sg5
I9
sg6
I0
sg7
I12
sba(iMAP.tile
Tile
p423
(dp424
g4
I6
sg5
I9
sg6
I0
sg7
I12
sba(iMAP.tile
Tile
p425
(dp426
g4
I7
sg5
I9
sg6
I0
sg7
I12
sba(iMAP.tile
Tile
p427
(dp428
g4
I8
sg5
I9
sg6
I0
sg7
I8
sba(iMAP.tile
Tile
p429
(dp430
g4
I9
sg5
I9
sg6
I0
sg7
I8
sba(iMAP.tile
Tile
p431
(dp432
g4
I10
sg5
I9
sg6
I0
sg7
I8
sba(iMAP.tile
Tile
p433
(dp434
g4
I11
sg5
I9
sg6
I0
sg7
I8
sba(iMAP.tile
Tile
p435
(dp436
g4
I12
sg5
I9
sg6
I0
sg7
I8
sba(iMAP.tile
Tile
p437
(dp438
g4
I13
sg5
I9
sg6
I0
sg7
I12
sba(iMAP.tile
Tile
p439
(dp440
g4
I14
sg5
I9
sg6
I0
sg7
I12
sba(iMAP.tile
Tile
p441
(dp442
g4
I15
sg5
I9
sg6
I0
sg7
I12
sba(iMAP.tile
Tile
p443
(dp444
g4
I16
sg5
I9
sg6
I0
sg7
I12
sba(iMAP.tile
Tile
p445
(dp446
g4
I17
sg5
I9
sg6
I0
sg7
I12
sba(iMAP.tile
Tile
p447
(dp448
g4
I18
sg5
I9
sg6
I0
sg7
I12
sba(iMAP.tile
Tile
p449
(dp450
g4
I19
sg5
I9
sg6
I0
sg7
I29
sba(iMAP.tile
Tile
p451
(dp452
g4
I20
sg5
I9
sg6
I0
sg7
I29
sba(iMAP.tile
Tile
p453
(dp454
g4
I21
sg5
I9
sg6
I0
sg7
I29
sbaa(lp455
(iMAP.tile
Tile
p456
(dp457
g4
I0
sg5
I10
sg6
I0
sg7
I12
sba(iMAP.tile
Tile
p458
(dp459
g4
I1
sg5
I10
sg6
I0
sg7
I8
sba(iMAP.tile
Tile
p460
(dp461
g4
I2
sg5
I10
sg6
I0
sg7
I8
sba(iMAP.tile
Tile
p462
(dp463
g4
I3
sg5
I10
sg6
I0
sg7
I8
sba(iMAP.tile
Tile
p464
(dp465
g4
I4
sg5
I10
sg6
I0
sg7
I10
sba(iMAP.tile
Tile
p466
(dp467
g4
I5
sg5
I10
sg6
I0
sg7
I8
sba(iMAP.tile
Tile
p468
(dp469
g4
I6
sg5
I10
sg6
I0
sg7
I8
sba(iMAP.tile
Tile
p470
(dp471
g4
I7
sg5
I10
sg6
I0
sg7
I8
sba(iMAP.tile
Tile
p472
(dp473
g4
I8
sg5
I10
sg6
I0
sg7
I8
sba(iMAP.tile
Tile
p474
(dp475
g4
I9
sg5
I10
sg6
I0
sg7
I8
sba(iMAP.tile
Tile
p476
(dp477
g4
I10
sg5
I10
sg6
I0
sg7
I55
sba(iMAP.tile
Tile
p478
(dp479
g4
I11
sg5
I10
sg6
I0
sg7
I8
sba(iMAP.tile
Tile
p480
(dp481
g4
I12
sg5
I10
sg6
I0
sg7
I8
sba(iMAP.tile
Tile
p482
(dp483
g4
I13
sg5
I10
sg6
I0
sg7
I8
sba(iMAP.tile
Tile
p484
(dp485
g4
I14
sg5
I10
sg6
I0
sg7
I8
sba(iMAP.tile
Tile
p486
(dp487
g4
I15
sg5
I10
sg6
I0
sg7
I8
sba(iMAP.tile
Tile
p488
(dp489
g4
I16
sg5
I10
sg6
I0
sg7
I8
sba(iMAP.tile
Tile
p490
(dp491
g4
I17
sg5
I10
sg6
I0
sg7
I8
sba(iMAP.tile
Tile
p492
(dp493
g4
I18
sg5
I10
sg6
I0
sg7
I8
sba(iMAP.tile
Tile
p494
(dp495
g4
I19
sg5
I10
sg6
I0
sg7
I8
sba(iMAP.tile
Tile
p496
(dp497
g4
I20
sg5
I10
sg6
I0
sg7
I8
sba(iMAP.tile
Tile
p498
(dp499
g4
I21
sg5
I10
sg6
I0
sg7
I121
sbaa(lp500
(iMAP.tile
Tile
p501
(dp502
g4
I0
sg5
I11
sg6
I0
sg7
I52
sba(iMAP.tile
Tile
p503
(dp504
g4
I1
sg5
I11
sg6
I0
sg7
I52
sba(iMAP.tile
Tile
p505
(dp506
g4
I2
sg5
I11
sg6
I0
sg7
I52
sba(iMAP.tile
Tile
p507
(dp508
g4
I3
sg5
I11
sg6
I0
sg7
I12
sba(iMAP.tile
Tile
p509
(dp510
g4
I4
sg5
I11
sg6
I0
sg7
I67
sba(iMAP.tile
Tile
p511
(dp512
g4
I5
sg5
I11
sg6
I0
sg7
I12
sba(iMAP.tile
Tile
p513
(dp514
g4
I6
sg5
I11
sg6
I0
sg7
I12
sba(iMAP.tile
Tile
p515
(dp516
g4
I7
sg5
I11
sg6
I0
sg7
I12
sba(iMAP.tile
Tile
p517
(dp518
g4
I8
sg5
I11
sg6
I0
sg7
I8
sba(iMAP.tile
Tile
p519
(dp520
g4
I9
sg5
I11
sg6
I0
sg7
I8
sba(iMAP.tile
Tile
p521
(dp522
g4
I10
sg5
I11
sg6
I0
sg7
I8
sba(iMAP.tile
Tile
p523
(dp524
g4
I11
sg5
I11
sg6
I0
sg7
I8
sba(iMAP.tile
Tile
p525
(dp526
g4
I12
sg5
I11
sg6
I0
sg7
I8
sba(iMAP.tile
Tile
p527
(dp528
g4
I13
sg5
I11
sg6
I0
sg7
I12
sba(iMAP.tile
Tile
p529
(dp530
g4
I14
sg5
I11
sg6
I0
sg7
I12
sba(iMAP.tile
Tile
p531
(dp532
g4
I15
sg5
I11
sg6
I0
sg7
I12
sba(iMAP.tile
Tile
p533
(dp534
g4
I16
sg5
I11
sg6
I0
sg7
I12
sba(iMAP.tile
Tile
p535
(dp536
g4
I17
sg5
I11
sg6
I0
sg7
I12
sba(iMAP.tile
Tile
p537
(dp538
g4
I18
sg5
I11
sg6
I0
sg7
I12
sba(iMAP.tile
Tile
p539
(dp540
g4
I19
sg5
I11
sg6
I0
sg7
I29
sba(iMAP.tile
Tile
p541
(dp542
g4
I20
sg5
I11
sg6
I0
sg7
I29
sba(iMAP.tile
Tile
p543
(dp544
g4
I21
sg5
I11
sg6
I0
sg7
I29
sbaa(lp545
(iMAP.tile
Tile
p546
(dp547
g4
I0
sg5
I12
sg6
I0
sg7
I52
sba(iMAP.tile
Tile
p548
(dp549
g4
I1
sg5
I12
sg6
I0
sg7
I52
sba(iMAP.tile
Tile
p550
(dp551
g4
I2
sg5
I12
sg6
I0
sg7
I12
sba(iMAP.tile
Tile
p552
(dp553
g4
I3
sg5
I12
sg6
I0
sg7
I12
sba(iMAP.tile
Tile
p554
(dp555
g4
I4
sg5
I12
sg6
I0
sg7
I65
sba(iMAP.tile
Tile
p556
(dp557
g4
I5
sg5
I12
sg6
I0
sg7
I12
sba(iMAP.tile
Tile
p558
(dp559
g4
I6
sg5
I12
sg6
I0
sg7
I12
sba(iMAP.tile
Tile
p560
(dp561
g4
I7
sg5
I12
sg6
I0
sg7
I12
sba(iMAP.tile
Tile
p562
(dp563
g4
I8
sg5
I12
sg6
I0
sg7
I12
sba(iMAP.tile
Tile
p564
(dp565
g4
I9
sg5
I12
sg6
I0
sg7
I8
sba(iMAP.tile
Tile
p566
(dp567
g4
I10
sg5
I12
sg6
I0
sg7
I8
sba(iMAP.tile
Tile
p568
(dp569
g4
I11
sg5
I12
sg6
I0
sg7
I8
sba(iMAP.tile
Tile
p570
(dp571
g4
I12
sg5
I12
sg6
I0
sg7
I12
sba(iMAP.tile
Tile
p572
(dp573
g4
I13
sg5
I12
sg6
I0
sg7
I12
sba(iMAP.tile
Tile
p574
(dp575
g4
I14
sg5
I12
sg6
I0
sg7
I12
sba(iMAP.tile
Tile
p576
(dp577
g4
I15
sg5
I12
sg6
I0
sg7
I12
sba(iMAP.tile
Tile
p578
(dp579
g4
I16
sg5
I12
sg6
I0
sg7
I12
sba(iMAP.tile
Tile
p580
(dp581
g4
I17
sg5
I12
sg6
I0
sg7
I12
sba(iMAP.tile
Tile
p582
(dp583
g4
I18
sg5
I12
sg6
I0
sg7
I12
sba(iMAP.tile
Tile
p584
(dp585
g4
I19
sg5
I12
sg6
I0
sg7
I12
sba(iMAP.tile
Tile
p586
(dp587
g4
I20
sg5
I12
sg6
I0
sg7
I29
sba(iMAP.tile
Tile
p588
(dp589
g4
I21
sg5
I12
sg6
I0
sg7
I29
sbaa(lp590
(iMAP.tile
Tile
p591
(dp592
g4
I0
sg5
I13
sg6
I0
sg7
I52
sba(iMAP.tile
Tile
p593
(dp594
g4
I1
sg5
I13
sg6
I0
sg7
I12
sba(iMAP.tile
Tile
p595
(dp596
g4
I2
sg5
I13
sg6
I0
sg7
I12
sba(iMAP.tile
Tile
p597
(dp598
g4
I3
sg5
I13
sg6
I0
sg7
I12
sba(iMAP.tile
Tile
p599
(dp600
g4
I4
sg5
I13
sg6
I0
sg7
I66
sba(iMAP.tile
Tile
p601
(dp602
g4
I5
sg5
I13
sg6
I0
sg7
I12
sba(iMAP.tile
Tile
p603
(dp604
g4
I6
sg5
I13
sg6
I0
sg7
I12
sba(iMAP.tile
Tile
p605
(dp606
g4
I7
sg5
I13
sg6
I0
sg7
I12
sba(iMAP.tile
Tile
p607
(dp608
g4
I8
sg5
I13
sg6
I0
sg7
I56
sba(iMAP.tile
Tile
p609
(dp610
g4
I9
sg5
I13
sg6
I0
sg7
I12
sba(iMAP.tile
Tile
p611
(dp612
g4
I10
sg5
I13
sg6
I0
sg7
I8
sba(iMAP.tile
Tile
p613
(dp614
g4
I11
sg5
I13
sg6
I0
sg7
I12
sba(iMAP.tile
Tile
p615
(dp616
g4
I12
sg5
I13
sg6
I0
sg7
I12
sba(iMAP.tile
Tile
p617
(dp618
g4
I13
sg5
I13
sg6
I0
sg7
I12
sba(iMAP.tile
Tile
p619
(dp620
g4
I14
sg5
I13
sg6
I0
sg7
I12
sba(iMAP.tile
Tile
p621
(dp622
g4
I15
sg5
I13
sg6
I0
sg7
I12
sba(iMAP.tile
Tile
p623
(dp624
g4
I16
sg5
I13
sg6
I0
sg7
I12
sba(iMAP.tile
Tile
p625
(dp626
g4
I17
sg5
I13
sg6
I0
sg7
I12
sba(iMAP.tile
Tile
p627
(dp628
g4
I18
sg5
I13
sg6
I0
sg7
I12
sba(iMAP.tile
Tile
p629
(dp630
g4
I19
sg5
I13
sg6
I0
sg7
I12
sba(iMAP.tile
Tile
p631
(dp632
g4
I20
sg5
I13
sg6
I0
sg7
I12
sba(iMAP.tile
Tile
p633
(dp634
g4
I21
sg5
I13
sg6
I0
sg7
I29
sbaa(lp635
(iMAP.tile
Tile
p636
(dp637
g4
I0
sg5
I14
sg6
I0
sg7
I12
sba(iMAP.tile
Tile
p638
(dp639
g4
I1
sg5
I14
sg6
I0
sg7
I12
sba(iMAP.tile
Tile
p640
(dp641
g4
I2
sg5
I14
sg6
I0
sg7
I12
sba(iMAP.tile
Tile
p642
(dp643
g4
I3
sg5
I14
sg6
I0
sg7
I12
sba(iMAP.tile
Tile
p644
(dp645
g4
I4
sg5
I14
sg6
I0
sg7
I67
sba(iMAP.tile
Tile
p646
(dp647
g4
I5
sg5
I14
sg6
I0
sg7
I12
sba(iMAP.tile
Tile
p648
(dp649
g4
I6
sg5
I14
sg6
I0
sg7
I12
sba(iMAP.tile
Tile
p650
(dp651
g4
I7
sg5
I14
sg6
I0
sg7
I12
sba(iMAP.tile
Tile
p652
(dp653
g4
I8
sg5
I14
sg6
I0
sg7
I56
sba(iMAP.tile
Tile
p654
(dp655
g4
I9
sg5
I14
sg6
I0
sg7
I43
sba(iMAP.tile
Tile
p656
(dp657
g4
I10
sg5
I14
sg6
I0
sg7
I8
sba(iMAP.tile
Tile
p658
(dp659
g4
I11
sg5
I14
sg6
I0
sg7
I12
sba(iMAP.tile
Tile
p660
(dp661
g4
I12
sg5
I14
sg6
I0
sg7
I12
sba(iMAP.tile
Tile
p662
(dp663
g4
I13
sg5
I14
sg6
I0
sg7
I12
sba(iMAP.tile
Tile
p664
(dp665
g4
I14
sg5
I14
sg6
I0
sg7
I12
sba(iMAP.tile
Tile
p666
(dp667
g4
I15
sg5
I14
sg6
I0
sg7
I12
sba(iMAP.tile
Tile
p668
(dp669
g4
I16
sg5
I14
sg6
I0
sg7
I12
sba(iMAP.tile
Tile
p670
(dp671
g4
I17
sg5
I14
sg6
I0
sg7
I12
sba(iMAP.tile
Tile
p672
(dp673
g4
I18
sg5
I14
sg6
I0
sg7
I12
sba(iMAP.tile
Tile
p674
(dp675
g4
I19
sg5
I14
sg6
I0
sg7
I12
sba(iMAP.tile
Tile
p676
(dp677
g4
I20
sg5
I14
sg6
I0
sg7
I12
sba(iMAP.tile
Tile
p678
(dp679
g4
I21
sg5
I14
sg6
I0
sg7
I29
sbaa(lp680
(iMAP.tile
Tile
p681
(dp682
g4
I0
sg5
I15
sg6
I0
sg7
I12
sba(iMAP.tile
Tile
p683
(dp684
g4
I1
sg5
I15
sg6
I0
sg7
I12
sba(iMAP.tile
Tile
p685
(dp686
g4
I2
sg5
I15
sg6
I0
sg7
I12
sba(iMAP.tile
Tile
p687
(dp688
g4
I3
sg5
I15
sg6
I0
sg7
I12
sba(iMAP.tile
Tile
p689
(dp690
g4
I4
sg5
I15
sg6
I0
sg7
I65
sba(iMAP.tile
Tile
p691
(dp692
g4
I5
sg5
I15
sg6
I0
sg7
I12
sba(iMAP.tile
Tile
p693
(dp694
g4
I6
sg5
I15
sg6
I0
sg7
I12
sba(iMAP.tile
Tile
p695
(dp696
g4
I7
sg5
I15
sg6
I0
sg7
I12
sba(iMAP.tile
Tile
p697
(dp698
g4
I8
sg5
I15
sg6
I0
sg7
I56
sba(iMAP.tile
Tile
p699
(dp700
g4
I9
sg5
I15
sg6
I0
sg7
I12
sba(iMAP.tile
Tile
p701
(dp702
g4
I10
sg5
I15
sg6
I0
sg7
I8
sba(iMAP.tile
Tile
p703
(dp704
g4
I11
sg5
I15
sg6
I0
sg7
I12
sba(iMAP.tile
Tile
p705
(dp706
g4
I12
sg5
I15
sg6
I0
sg7
I12
sba(iMAP.tile
Tile
p707
(dp708
g4
I13
sg5
I15
sg6
I0
sg7
I12
sba(iMAP.tile
Tile
p709
(dp710
g4
I14
sg5
I15
sg6
I0
sg7
I12
sba(iMAP.tile
Tile
p711
(dp712
g4
I15
sg5
I15
sg6
I0
sg7
I12
sba(iMAP.tile
Tile
p713
(dp714
g4
I16
sg5
I15
sg6
I0
sg7
I12
sba(iMAP.tile
Tile
p715
(dp716
g4
I17
sg5
I15
sg6
I0
sg7
I12
sba(iMAP.tile
Tile
p717
(dp718
g4
I18
sg5
I15
sg6
I0
sg7
I12
sba(iMAP.tile
Tile
p719
(dp720
g4
I19
sg5
I15
sg6
I0
sg7
I12
sba(iMAP.tile
Tile
p721
(dp722
g4
I20
sg5
I15
sg6
I0
sg7
I12
sba(iMAP.tile
Tile
p723
(dp724
g4
I21
sg5
I15
sg6
I0
sg7
I12
sbaa(lp725
(iMAP.tile
Tile
p726
(dp727
g4
I0
sg5
I16
sg6
I0
sg7
I12
sba(iMAP.tile
Tile
p728
(dp729
g4
I1
sg5
I16
sg6
I0
sg7
I12
sba(iMAP.tile
Tile
p730
(dp731
g4
I2
sg5
I16
sg6
I0
sg7
I12
sba(iMAP.tile
Tile
p732
(dp733
g4
I3
sg5
I16
sg6
I0
sg7
I12
sba(iMAP.tile
Tile
p734
(dp735
g4
I4
sg5
I16
sg6
I0
sg7
I66
sba(iMAP.tile
Tile
p736
(dp737
g4
I5
sg5
I16
sg6
I0
sg7
I12
sba(iMAP.tile
Tile
p738
(dp739
g4
I6
sg5
I16
sg6
I0
sg7
I12
sba(iMAP.tile
Tile
p740
(dp741
g4
I7
sg5
I16
sg6
I0
sg7
I56
sba(iMAP.tile
Tile
p742
(dp743
g4
I8
sg5
I16
sg6
I0
sg7
I56
sba(iMAP.tile
Tile
p744
(dp745
g4
I9
sg5
I16
sg6
I0
sg7
I12
sba(iMAP.tile
Tile
p746
(dp747
g4
I10
sg5
I16
sg6
I0
sg7
I8
sba(iMAP.tile
Tile
p748
(dp749
g4
I11
sg5
I16
sg6
I0
sg7
I12
sba(iMAP.tile
Tile
p750
(dp751
g4
I12
sg5
I16
sg6
I0
sg7
I12
sba(iMAP.tile
Tile
p752
(dp753
g4
I13
sg5
I16
sg6
I0
sg7
I12
sba(iMAP.tile
Tile
p754
(dp755
g4
I14
sg5
I16
sg6
I0
sg7
I12
sba(iMAP.tile
Tile
p756
(dp757
g4
I15
sg5
I16
sg6
I0
sg7
I12
sba(iMAP.tile
Tile
p758
(dp759
g4
I16
sg5
I16
sg6
I0
sg7
I12
sba(iMAP.tile
Tile
p760
(dp761
g4
I17
sg5
I16
sg6
I0
sg7
I12
sba(iMAP.tile
Tile
p762
(dp763
g4
I18
sg5
I16
sg6
I0
sg7
I12
sba(iMAP.tile
Tile
p764
(dp765
g4
I19
sg5
I16
sg6
I0
sg7
I12
sba(iMAP.tile
Tile
p766
(dp767
g4
I20
sg5
I16
sg6
I0
sg7
I12
sba(iMAP.tile
Tile
p768
(dp769
g4
I21
sg5
I16
sg6
I0
sg7
I12
sbaa(lp770
(iMAP.tile
Tile
p771
(dp772
g4
I0
sg5
I17
sg6
I0
sg7
I12
sba(iMAP.tile
Tile
p773
(dp774
g4
I1
sg5
I17
sg6
I0
sg7
I12
sba(iMAP.tile
Tile
p775
(dp776
g4
I2
sg5
I17
sg6
I0
sg7
I12
sba(iMAP.tile
Tile
p777
(dp778
g4
I3
sg5
I17
sg6
I0
sg7
I12
sba(iMAP.tile
Tile
p779
(dp780
g4
I4
sg5
I17
sg6
I0
sg7
I67
sba(iMAP.tile
Tile
p781
(dp782
g4
I5
sg5
I17
sg6
I0
sg7
I12
sba(iMAP.tile
Tile
p783
(dp784
g4
I6
sg5
I17
sg6
I0
sg7
I12
sba(iMAP.tile
Tile
p785
(dp786
g4
I7
sg5
I17
sg6
I0
sg7
I56
sba(iMAP.tile
Tile
p787
(dp788
g4
I8
sg5
I17
sg6
I0
sg7
I56
sba(iMAP.tile
Tile
p789
(dp790
g4
I9
sg5
I17
sg6
I0
sg7
I60
sba(iMAP.tile
Tile
p791
(dp792
g4
I10
sg5
I17
sg6
I0
sg7
I8
sba(iMAP.tile
Tile
p793
(dp794
g4
I11
sg5
I17
sg6
I0
sg7
I12
sba(iMAP.tile
Tile
p795
(dp796
g4
I12
sg5
I17
sg6
I0
sg7
I12
sba(iMAP.tile
Tile
p797
(dp798
g4
I13
sg5
I17
sg6
I0
sg7
I12
sba(iMAP.tile
Tile
p799
(dp800
g4
I14
sg5
I17
sg6
I0
sg7
I12
sba(iMAP.tile
Tile
p801
(dp802
g4
I15
sg5
I17
sg6
I0
sg7
I12
sba(iMAP.tile
Tile
p803
(dp804
g4
I16
sg5
I17
sg6
I0
sg7
I12
sba(iMAP.tile
Tile
p805
(dp806
g4
I17
sg5
I17
sg6
I0
sg7
I12
sba(iMAP.tile
Tile
p807
(dp808
g4
I18
sg5
I17
sg6
I0
sg7
I12
sba(iMAP.tile
Tile
p809
(dp810
g4
I19
sg5
I17
sg6
I0
sg7
I12
sba(iMAP.tile
Tile
p811
(dp812
g4
I20
sg5
I17
sg6
I0
sg7
I12
sba(iMAP.tile
Tile
p813
(dp814
g4
I21
sg5
I17
sg6
I0
sg7
I12
sbaa(lp815
(iMAP.tile
Tile
p816
(dp817
g4
I0
sg5
I18
sg6
I0
sg7
I12
sba(iMAP.tile
Tile
p818
(dp819
g4
I1
sg5
I18
sg6
I0
sg7
I12
sba(iMAP.tile
Tile
p820
(dp821
g4
I2
sg5
I18
sg6
I0
sg7
I12
sba(iMAP.tile
Tile
p822
(dp823
g4
I3
sg5
I18
sg6
I0
sg7
I12
sba(iMAP.tile
Tile
p824
(dp825
g4
I4
sg5
I18
sg6
I0
sg7
I65
sba(iMAP.tile
Tile
p826
(dp827
g4
I5
sg5
I18
sg6
I0
sg7
I12
sba(iMAP.tile
Tile
p828
(dp829
g4
I6
sg5
I18
sg6
I0
sg7
I12
sba(iMAP.tile
Tile
p830
(dp831
g4
I7
sg5
I18
sg6
I0
sg7
I56
sba(iMAP.tile
Tile
p832
(dp833
g4
I8
sg5
I18
sg6
I0
sg7
I56
sba(iMAP.tile
Tile
p834
(dp835
g4
I9
sg5
I18
sg6
I0
sg7
I12
sba(iMAP.tile
Tile
p836
(dp837
g4
I10
sg5
I18
sg6
I0
sg7
I8
sba(iMAP.tile
Tile
p838
(dp839
g4
I11
sg5
I18
sg6
I0
sg7
I12
sba(iMAP.tile
Tile
p840
(dp841
g4
I12
sg5
I18
sg6
I0
sg7
I12
sba(iMAP.tile
Tile
p842
(dp843
g4
I13
sg5
I18
sg6
I0
sg7
I12
sba(iMAP.tile
Tile
p844
(dp845
g4
I14
sg5
I18
sg6
I0
sg7
I12
sba(iMAP.tile
Tile
p846
(dp847
g4
I15
sg5
I18
sg6
I0
sg7
I12
sba(iMAP.tile
Tile
p848
(dp849
g4
I16
sg5
I18
sg6
I0
sg7
I12
sba(iMAP.tile
Tile
p850
(dp851
g4
I17
sg5
I18
sg6
I0
sg7
I12
sba(iMAP.tile
Tile
p852
(dp853
g4
I18
sg5
I18
sg6
I0
sg7
I12
sba(iMAP.tile
Tile
p854
(dp855
g4
I19
sg5
I18
sg6
I0
sg7
I12
sba(iMAP.tile
Tile
p856
(dp857
g4
I20
sg5
I18
sg6
I0
sg7
I12
sba(iMAP.tile
Tile
p858
(dp859
g4
I21
sg5
I18
sg6
I0
sg7
I12
sbaa(lp860
(iMAP.tile
Tile
p861
(dp862
g4
I0
sg5
I19
sg6
I0
sg7
I12
sba(iMAP.tile
Tile
p863
(dp864
g4
I1
sg5
I19
sg6
I0
sg7
I12
sba(iMAP.tile
Tile
p865
(dp866
g4
I2
sg5
I19
sg6
I0
sg7
I12
sba(iMAP.tile
Tile
p867
(dp868
g4
I3
sg5
I19
sg6
I0
sg7
I12
sba(iMAP.tile
Tile
p869
(dp870
g4
I4
sg5
I19
sg6
I0
sg7
I66
sba(iMAP.tile
Tile
p871
(dp872
g4
I5
sg5
I19
sg6
I0
sg7
I12
sba(iMAP.tile
Tile
p873
(dp874
g4
I6
sg5
I19
sg6
I0
sg7
I12
sba(iMAP.tile
Tile
p875
(dp876
g4
I7
sg5
I19
sg6
I0
sg7
I12
sba(iMAP.tile
Tile
p877
(dp878
g4
I8
sg5
I19
sg6
I0
sg7
I56
sba(iMAP.tile
Tile
p879
(dp880
g4
I9
sg5
I19
sg6
I0
sg7
I12
sba(iMAP.tile
Tile
p881
(dp882
g4
I10
sg5
I19
sg6
I0
sg7
I8
sba(iMAP.tile
Tile
p883
(dp884
g4
I11
sg5
I19
sg6
I0
sg7
I12
sba(iMAP.tile
Tile
p885
(dp886
g4
I12
sg5
I19
sg6
I0
sg7
I12
sba(iMAP.tile
Tile
p887
(dp888
g4
I13
sg5
I19
sg6
I0
sg7
I12
sba(iMAP.tile
Tile
p889
(dp890
g4
I14
sg5
I19
sg6
I0
sg7
I12
sba(iMAP.tile
Tile
p891
(dp892
g4
I15
sg5
I19
sg6
I0
sg7
I12
sba(iMAP.tile
Tile
p893
(dp894
g4
I16
sg5
I19
sg6
I0
sg7
I12
sba(iMAP.tile
Tile
p895
(dp896
g4
I17
sg5
I19
sg6
I0
sg7
I12
sba(iMAP.tile
Tile
p897
(dp898
g4
I18
sg5
I19
sg6
I0
sg7
I12
sba(iMAP.tile
Tile
p899
(dp900
g4
I19
sg5
I19
sg6
I0
sg7
I12
sba(iMAP.tile
Tile
p901
(dp902
g4
I20
sg5
I19
sg6
I0
sg7
I12
sba(iMAP.tile
Tile
p903
(dp904
g4
I21
sg5
I19
sg6
I0
sg7
I12
sbaa(lp905
(iMAP.tile
Tile
p906
(dp907
g4
I0
sg5
I20
sg6
I0
sg7
I12
sba(iMAP.tile
Tile
p908
(dp909
g4
I1
sg5
I20
sg6
I0
sg7
I12
sba(iMAP.tile
Tile
p910
(dp911
g4
I2
sg5
I20
sg6
I0
sg7
I12
sba(iMAP.tile
Tile
p912
(dp913
g4
I3
sg5
I20
sg6
I0
sg7
I12
sba(iMAP.tile
Tile
p914
(dp915
g4
I4
sg5
I20
sg6
I0
sg7
I67
sba(iMAP.tile
Tile
p916
(dp917
g4
I5
sg5
I20
sg6
I0
sg7
I12
sba(iMAP.tile
Tile
p918
(dp919
g4
I6
sg5
I20
sg6
I0
sg7
I12
sba(iMAP.tile
Tile
p920
(dp921
g4
I7
sg5
I20
sg6
I0
sg7
I12
sba(iMAP.tile
Tile
p922
(dp923
g4
I8
sg5
I20
sg6
I0
sg7
I56
sba(iMAP.tile
Tile
p924
(dp925
g4
I9
sg5
I20
sg6
I0
sg7
I57
sba(iMAP.tile
Tile
p926
(dp927
g4
I10
sg5
I20
sg6
I0
sg7
I8
sba(iMAP.tile
Tile
p928
(dp929
g4
I11
sg5
I20
sg6
I0
sg7
I12
sba(iMAP.tile
Tile
p930
(dp931
g4
I12
sg5
I20
sg6
I0
sg7
I12
sba(iMAP.tile
Tile
p932
(dp933
g4
I13
sg5
I20
sg6
I0
sg7
I12
sba(iMAP.tile
Tile
p934
(dp935
g4
I14
sg5
I20
sg6
I0
sg7
I12
sba(iMAP.tile
Tile
p936
(dp937
g4
I15
sg5
I20
sg6
I0
sg7
I12
sba(iMAP.tile
Tile
p938
(dp939
g4
I16
sg5
I20
sg6
I0
sg7
I12
sba(iMAP.tile
Tile
p940
(dp941
g4
I17
sg5
I20
sg6
I0
sg7
I12
sba(iMAP.tile
Tile
p942
(dp943
g4
I18
sg5
I20
sg6
I0
sg7
I12
sba(iMAP.tile
Tile
p944
(dp945
g4
I19
sg5
I20
sg6
I0
sg7
I12
sba(iMAP.tile
Tile
p946
(dp947
g4
I20
sg5
I20
sg6
I0
sg7
I12
sba(iMAP.tile
Tile
p948
(dp949
g4
I21
sg5
I20
sg6
I0
sg7
I12
sbaa(lp950
(iMAP.tile
Tile
p951
(dp952
g4
I0
sg5
I21
sg6
I0
sg7
I12
sba(iMAP.tile
Tile
p953
(dp954
g4
I1
sg5
I21
sg6
I0
sg7
I12
sba(iMAP.tile
Tile
p955
(dp956
g4
I2
sg5
I21
sg6
I0
sg7
I12
sba(iMAP.tile
Tile
p957
(dp958
g4
I3
sg5
I21
sg6
I0
sg7
I12
sba(iMAP.tile
Tile
p959
(dp960
g4
I4
sg5
I21
sg6
I0
sg7
I65
sba(iMAP.tile
Tile
p961
(dp962
g4
I5
sg5
I21
sg6
I0
sg7
I12
sba(iMAP.tile
Tile
p963
(dp964
g4
I6
sg5
I21
sg6
I0
sg7
I12
sba(iMAP.tile
Tile
p965
(dp966
g4
I7
sg5
I21
sg6
I0
sg7
I12
sba(iMAP.tile
Tile
p967
(dp968
g4
I8
sg5
I21
sg6
I0
sg7
I56
sba(iMAP.tile
Tile
p969
(dp970
g4
I9
sg5
I21
sg6
I0
sg7
I12
sba(iMAP.tile
Tile
p971
(dp972
g4
I10
sg5
I21
sg6
I0
sg7
I8
sba(iMAP.tile
Tile
p973
(dp974
g4
I11
sg5
I21
sg6
I0
sg7
I12
sba(iMAP.tile
Tile
p975
(dp976
g4
I12
sg5
I21
sg6
I0
sg7
I12
sba(iMAP.tile
Tile
p977
(dp978
g4
I13
sg5
I21
sg6
I0
sg7
I12
sba(iMAP.tile
Tile
p979
(dp980
g4
I14
sg5
I21
sg6
I0
sg7
I12
sba(iMAP.tile
Tile
p981
(dp982
g4
I15
sg5
I21
sg6
I0
sg7
I12
sba(iMAP.tile
Tile
p983
(dp984
g4
I16
sg5
I21
sg6
I0
sg7
I12
sba(iMAP.tile
Tile
p985
(dp986
g4
I17
sg5
I21
sg6
I0
sg7
I12
sba(iMAP.tile
Tile
p987
(dp988
g4
I18
sg5
I21
sg6
I0
sg7
I12
sba(iMAP.tile
Tile
p989
(dp990
g4
I19
sg5
I21
sg6
I0
sg7
I12
sba(iMAP.tile
Tile
p991
(dp992
g4
I20
sg5
I21
sg6
I0
sg7
I12
sba(iMAP.tile
Tile
p993
(dp994
g4
I21
sg5
I21
sg6
I0
sg7
I12
sbaaI12
(I10
I0
tp995
(I10
I21
tp996
(I10
I16
tp997
(dp998
(I6
I9
tp999
(S'blacksmith'
p1000
I1
tp1001
s(I3
I9
tp1002
(S'armory'
p1003
I1
tp1004
s(I20
I9
tp1005
(S'magicshop'
p1006
I1
tp1007
s(I14
I9
tp1008
(S'itemshop'
p1009
I1
tp1010
s(I17
I9
tp1011
(S'tavern'
p1012
Ntp1013
s(dp1014
(lp1015
((I14
I12
tp1016
S'female'
p1017
tp1018
a((I3
I14
tp1019
S'female'
p1020
tp1021
a((I17
I17
tp1022
S'female'
p1023
tp1024
atp1025
.