((lp0
(lp1
I12
aI12
aI12
aI12
aI12
aI12
aI52
aI52
aI52
aI120
aI52
aI52
aI52
aI12
aI12
aI12
aI12
aI12
aI12
aI12
aa(lp2
I12
aI12
aI12
aI12
aI12
aI12
aI12
aI52
aI52
aI8
aI52
aI52
aI12
aI12
aI12
aI12
aI12
aI12
aI12
aI12
aa(lp3
I12
aI13
aI12
aI12
aI12
aI12
aI12
aI12
aI52
aI8
aI52
aI12
aI12
aI12
aI12
aI13
aI12
aI12
aI12
aI12
aa(lp4
I12
aI12
aI12
aI12
aI12
aI12
aI12
aI12
aI12
aI8
aI12
aI12
aI12
aI12
aI12
aI12
aI12
aI12
aI12
aI12
aa(lp5
I12
aI12
aI12
aI12
aI13
aI12
aI12
aI12
aI52
aI8
aI12
aI13
aI12
aI12
aI12
aI12
aI12
aI12
aI13
aI12
aa(lp6
I12
aI12
aI12
aI12
aI12
aI12
aI12
aI12
aI12
aI8
aI110
aI12
aI12
aI12
aI12
aI12
aI12
aI12
aI12
aI12
aa(lp7
I12
aI12
aI12
aI12
aI12
aI12
aI12
aI12
aI12
aI8
aI52
aI12
aI12
aI12
aI12
aI12
aI12
aI12
aI12
aI12
aa(lp8
I12
aI56
aI56
aI56
aI12
aI12
aI12
aI12
aI8
aI8
aI8
aI12
aI12
aI12
aI56
aI56
aI56
aI12
aI12
aI12
aa(lp9
I12
aI12
aI43
aI12
aI12
aI12
aI12
aI8
aI8
aI8
aI8
aI8
aI12
aI12
aI12
aI57
aI12
aI12
aI12
aI12
aa(lp10
I12
aI8
aI8
aI8
aI8
aI8
aI8
aI8
aI8
aI55
aI8
aI8
aI8
aI8
aI8
aI8
aI8
aI8
aI8
aI12
aa(lp11
I12
aI12
aI12
aI12
aI12
aI12
aI12
aI8
aI8
aI8
aI8
aI8
aI12
aI12
aI12
aI12
aI12
aI12
aI12
aI12
aa(lp12
I12
aI13
aI12
aI56
aI12
aI12
aI56
aI12
aI8
aI8
aI8
aI12
aI12
aI12
aI12
aI13
aI56
aI56
aI56
aI12
aa(lp13
I12
aI56
aI56
aI56
aI56
aI56
aI56
aI12
aI12
aI8
aI12
aI12
aI12
aI12
aI12
aI12
aI56
aI56
aI56
aI12
aa(lp14
I12
aI12
aI58
aI12
aI12
aI59
aI12
aI12
aI12
aI8
aI12
aI12
aI12
aI12
aI12
aI12
aI12
aI60
aI12
aI12
aa(lp15
I12
aI8
aI8
aI8
aI8
aI8
aI8
aI8
aI8
aI8
aI8
aI8
aI8
aI8
aI8
aI8
aI8
aI8
aI8
aI12
aa(lp16
I12
aI12
aI12
aI13
aI12
aI12
aI12
aI12
aI53
aI8
aI12
aI12
aI12
aI12
aI12
aI13
aI12
aI12
aI12
aI12
aa(lp17
I12
aI12
aI12
aI12
aI12
aI12
aI12
aI12
aI12
aI8
aI12
aI12
aI12
aI12
aI12
aI12
aI12
aI12
aI12
aI12
aa(lp18
I12
aI12
aI12
aI12
aI12
aI12
aI12
aI12
aI29
aI8
aI29
aI12
aI12
aI12
aI12
aI12
aI13
aI12
aI12
aI12
aa(lp19
I12
aI12
aI12
aI12
aI12
aI12
aI12
aI29
aI29
aI8
aI29
aI29
aI12
aI12
aI12
aI12
aI12
aI12
aI12
aI12
aa(lp20
I12
aI12
aI12
aI12
aI12
aI12
aI29
aI29
aI29
aI121
aI29
aI29
aI29
aI12
aI12
aI12
aI12
aI12
aI12
aI12
aaI12
(I9
I0
tp21
(I9
I19
tp22
(I9
I16
tp23
(dp24
(I2
I8
tp25
(S'itemshop'
p26
I1
tp27
s(I2
I13
tp28
(S'armory'
p29
I1
tp30
s(I15
I8
tp31
(S'magicshop'
p32
I1
tp33
s(I5
I13
tp34
(S'blacksmith'
p35
I1
tp36
s(I17
I13
tp37
(S'tavern'
p38
Ntp39
s(dp40
(I10
I5
tp41
(lp42
(I15
I1
tp43
a(I15
I2
tp44
a(I13
I50
tp45
a(I15
I0
tp46
as(I11
I4
tp47
(lp48
(I26
I0
tp49
a(I27
I0
tp50
a(I28
I0
tp51
as(I6
I6
tp52
(lp53
(I12
I1
tp54
a(I12
I1
tp55
astp56
.